

Microchip MPLAB XC8 Assembler V2.05 build -831301201 
                                                                                               Thu Jul 16 15:29:45 2020

Microchip MPLAB XC8 C Compiler v2.05 (Free license) build 20181220022703 Og1 
     1                           	processor	16F15354
     2                           	opt	pw 120
     3                           	opt	flic
     4                           	psect	stringtext1,global,class=STRCODE,delta=2
     5                           	psect	stringtext2,global,class=STRCODE,delta=2
     6                           	psect	nvBANK2,global,class=BANK2,space=1,delta=1
     7                           	psect	cinit,global,class=CODE,merge=1,delta=2
     8                           	psect	bssBANK0,global,class=BANK0,space=1,delta=1
     9                           	psect	bssBANK2,global,class=BANK2,space=1,delta=1
    10                           	psect	clrtext,global,class=CODE,delta=2
    11                           	psect	cstackBANK2,global,class=BANK2,space=1,delta=1
    12                           	psect	cstackBANK1,global,class=BANK1,space=1,delta=1
    13                           	psect	cstackCOMMON,global,class=COMMON,space=1,delta=1
    14                           	psect	cstackBANK0,global,class=BANK0,space=1,delta=1
    15                           	psect	maintext,global,class=CODE,merge=1,split=1,delta=2
    16                           	psect	text1,local,class=CODE,merge=1,delta=2
    17                           	psect	text2,local,class=CODE,merge=1,delta=2
    18                           	psect	text3,local,class=CODE,merge=1,delta=2
    19                           	psect	text4,local,class=CODE,merge=1,delta=2
    20                           	psect	text5,local,class=CODE,merge=1,delta=2
    21                           	psect	text6,local,class=CODE,merge=1,delta=2
    22                           	psect	text7,local,class=CODE,merge=1,delta=2
    23                           	psect	text8,local,class=CODE,merge=1,delta=2,group=1
    24                           	psect	text9,local,class=CODE,merge=1,delta=2,group=1
    25                           	psect	text10,local,class=CODE,merge=1,delta=2,group=1
    26                           	psect	text11,local,class=CODE,merge=1,delta=2,group=1
    27                           	psect	text12,local,class=CODE,merge=1,delta=2,group=1
    28                           	psect	text13,local,class=CODE,merge=1,delta=2
    29                           	psect	text14,local,class=CODE,merge=1,delta=2
    30                           	psect	intentry,global,class=CODE,delta=2
    31                           	psect	text16,local,class=CODE,merge=1,delta=2
    32                           	psect	text17,local,class=CODE,merge=1,delta=2
    33                           	psect	text18,local,class=CODE,merge=1,delta=2
    34                           	psect	text19,local,class=CODE,merge=1,delta=2
    35                           	psect	text20,local,class=CODE,merge=1,delta=2
    36                           	dabs	1,0x7E,2
    37  0000                     
    38                           ; Version 2.05
    39                           ; Generated 20/12/2018 GMT
    40                           ; 
    41                           ; Copyright © 2018, Microchip Technology Inc. and its subsidiaries ("Microchip")
    42                           ; All rights reserved.
    43                           ; 
    44                           ; This software is developed by Microchip Technology Inc. and its subsidiaries ("Microch
      +                          ip").
    45                           ; 
    46                           ; Redistribution and use in source and binary forms, with or without modification, are
    47                           ; permitted provided that the following conditions are met:
    48                           ; 
    49                           ;     1. Redistributions of source code must retain the above copyright notice, this lis
      +                          t of
    50                           ;        conditions and the following disclaimer.
    51                           ; 
    52                           ;     2. Redistributions in binary form must reproduce the above copyright notice, this 
      +                          list
    53                           ;        of conditions and the following disclaimer in the documentation and/or other
    54                           ;        materials provided with the distribution.
    55                           ; 
    56                           ;     3. Microchip's name may not be used to endorse or promote products derived from th
      +                          is
    57                           ;        software without specific prior written permission.
    58                           ; 
    59                           ; THIS SOFTWARE IS PROVIDED BY MICROCHIP "AS IS" AND ANY EXPRESS OR IMPLIED WARRANTIES,
    60                           ; INCLUDING, BUT NOT LIMITED TO, THE IMPLIED WARRANTIES OF MERCHANTABILITY AND FITNESS F
      +                          OR
    61                           ; PURPOSE ARE DISCLAIMED.  IN NO EVENT SHALL MICROCHIP BE LIABLE FOR ANY DIRECT, INDIREC
      +                          T,
    62                           ; INCIDENTAL, SPECIAL, EXEMPLARY, OR CONSEQUENTIAL DAMAGES (INCLUDING BUT NOT LIMITED TO
    63                           ; PROCUREMENT OF SUBSTITUTE GOODS OR SERVICES; LOSS OF USE, DATA OR PROFITS; OR BUSINESS
    64                           ; INTERRUPTION) HOWSOEVER CAUSED AND ON ANY THEORY OF LIABILITY, WHETHER IN CONTRACT, ST
      +                          RICT
    65                           ; LIABILITY, OR TORT (INCLUDING NEGLIGENCE OR OTHERWISE) ARISING IN ANY WAY OUT OF THE U
      +                          SE OF
    66                           ; THIS SOFTWARE, EVEN IF ADVISED OF THE POSSIBILITY OF SUCH DAMAGE.
    67                           ; 
    68                           ; 
    69                           ; Code-generator required, PIC16F15354 Definitions
    70                           ; 
    71                           ; SFR Addresses
    72  0000                     	;# 
    73  0001                     	;# 
    74  0002                     	;# 
    75  0003                     	;# 
    76  0004                     	;# 
    77  0005                     	;# 
    78  0006                     	;# 
    79  0007                     	;# 
    80  0008                     	;# 
    81  0009                     	;# 
    82  000A                     	;# 
    83  000B                     	;# 
    84  000C                     	;# 
    85  000D                     	;# 
    86  000E                     	;# 
    87  0010                     	;# 
    88  0012                     	;# 
    89  0013                     	;# 
    90  0014                     	;# 
    91  0016                     	;# 
    92  0018                     	;# 
    93  0019                     	;# 
    94  001A                     	;# 
    95  009B                     	;# 
    96  009B                     	;# 
    97  009C                     	;# 
    98  009D                     	;# 
    99  009E                     	;# 
   100  009F                     	;# 
   101  0119                     	;# 
   102  0119                     	;# 
   103  0119                     	;# 
   104  011A                     	;# 
   105  011A                     	;# 
   106  011A                     	;# 
   107  011B                     	;# 
   108  011B                     	;# 
   109  011B                     	;# 
   110  011B                     	;# 
   111  011B                     	;# 
   112  011C                     	;# 
   113  011C                     	;# 
   114  011C                     	;# 
   115  011D                     	;# 
   116  011D                     	;# 
   117  011D                     	;# 
   118  011E                     	;# 
   119  011E                     	;# 
   120  011E                     	;# 
   121  011F                     	;# 
   122  011F                     	;# 
   123  011F                     	;# 
   124  011F                     	;# 
   125  011F                     	;# 
   126  018C                     	;# 
   127  018D                     	;# 
   128  018E                     	;# 
   129  018F                     	;# 
   130  0190                     	;# 
   131  0191                     	;# 
   132  0192                     	;# 
   133  0196                     	;# 
   134  0197                     	;# 
   135  0198                     	;# 
   136  0199                     	;# 
   137  019A                     	;# 
   138  019B                     	;# 
   139  019C                     	;# 
   140  020C                     	;# 
   141  020C                     	;# 
   142  020D                     	;# 
   143  020E                     	;# 
   144  020F                     	;# 
   145  020F                     	;# 
   146  0210                     	;# 
   147  0210                     	;# 
   148  0211                     	;# 
   149  0211                     	;# 
   150  028C                     	;# 
   151  028C                     	;# 
   152  028D                     	;# 
   153  028D                     	;# 
   154  028E                     	;# 
   155  028F                     	;# 
   156  0290                     	;# 
   157  0291                     	;# 
   158  030C                     	;# 
   159  030C                     	;# 
   160  030D                     	;# 
   161  030E                     	;# 
   162  030F                     	;# 
   163  0310                     	;# 
   164  0310                     	;# 
   165  0311                     	;# 
   166  0312                     	;# 
   167  0313                     	;# 
   168  0314                     	;# 
   169  0314                     	;# 
   170  0315                     	;# 
   171  0316                     	;# 
   172  0318                     	;# 
   173  0318                     	;# 
   174  0319                     	;# 
   175  031A                     	;# 
   176  031C                     	;# 
   177  031C                     	;# 
   178  031D                     	;# 
   179  031E                     	;# 
   180  038C                     	;# 
   181  038C                     	;# 
   182  038D                     	;# 
   183  038E                     	;# 
   184  058C                     	;# 
   185  058C                     	;# 
   186  058D                     	;# 
   187  058E                     	;# 
   188  058F                     	;# 
   189  058F                     	;# 
   190  0590                     	;# 
   191  0591                     	;# 
   192  0592                     	;# 
   193  0593                     	;# 
   194  059C                     	;# 
   195  059C                     	;# 
   196  059D                     	;# 
   197  059D                     	;# 
   198  059E                     	;# 
   199  059F                     	;# 
   200  060C                     	;# 
   201  060D                     	;# 
   202  060E                     	;# 
   203  060F                     	;# 
   204  0610                     	;# 
   205  0611                     	;# 
   206  0612                     	;# 
   207  0613                     	;# 
   208  0614                     	;# 
   209  070C                     	;# 
   210  070D                     	;# 
   211  070E                     	;# 
   212  070F                     	;# 
   213  0710                     	;# 
   214  0711                     	;# 
   215  0712                     	;# 
   216  0713                     	;# 
   217  0716                     	;# 
   218  0717                     	;# 
   219  0718                     	;# 
   220  0719                     	;# 
   221  071A                     	;# 
   222  071B                     	;# 
   223  071C                     	;# 
   224  071D                     	;# 
   225  0796                     	;# 
   226  0797                     	;# 
   227  0798                     	;# 
   228  0799                     	;# 
   229  079A                     	;# 
   230  079B                     	;# 
   231  080C                     	;# 
   232  080D                     	;# 
   233  080E                     	;# 
   234  080F                     	;# 
   235  0810                     	;# 
   236  0811                     	;# 
   237  0812                     	;# 
   238  0813                     	;# 
   239  0814                     	;# 
   240  081A                     	;# 
   241  081A                     	;# 
   242  081B                     	;# 
   243  081C                     	;# 
   244  081C                     	;# 
   245  081D                     	;# 
   246  081E                     	;# 
   247  081F                     	;# 
   248  088C                     	;# 
   249  088D                     	;# 
   250  088E                     	;# 
   251  088F                     	;# 
   252  0890                     	;# 
   253  0891                     	;# 
   254  0892                     	;# 
   255  0893                     	;# 
   256  0895                     	;# 
   257  0896                     	;# 
   258  090C                     	;# 
   259  090E                     	;# 
   260  090F                     	;# 
   261  091F                     	;# 
   262  098F                     	;# 
   263  098F                     	;# 
   264  0990                     	;# 
   265  0991                     	;# 
   266  0992                     	;# 
   267  0993                     	;# 
   268  0994                     	;# 
   269  0995                     	;# 
   270  0996                     	;# 
   271  0997                     	;# 
   272  0A19                     	;# 
   273  0A19                     	;# 
   274  0A1A                     	;# 
   275  0A1A                     	;# 
   276  0A1B                     	;# 
   277  0A1B                     	;# 
   278  0A1B                     	;# 
   279  0A1C                     	;# 
   280  0A1C                     	;# 
   281  0A1D                     	;# 
   282  0A1D                     	;# 
   283  0A1E                     	;# 
   284  0A1E                     	;# 
   285  0A1F                     	;# 
   286  0A1F                     	;# 
   287  0A1F                     	;# 
   288  1E0F                     	;# 
   289  1E10                     	;# 
   290  1E11                     	;# 
   291  1E12                     	;# 
   292  1E13                     	;# 
   293  1E14                     	;# 
   294  1E15                     	;# 
   295  1E16                     	;# 
   296  1E17                     	;# 
   297  1E18                     	;# 
   298  1E19                     	;# 
   299  1E1A                     	;# 
   300  1E1B                     	;# 
   301  1E1C                     	;# 
   302  1E1D                     	;# 
   303  1E1E                     	;# 
   304  1E1F                     	;# 
   305  1E20                     	;# 
   306  1E21                     	;# 
   307  1E22                     	;# 
   308  1E23                     	;# 
   309  1E24                     	;# 
   310  1E25                     	;# 
   311  1E26                     	;# 
   312  1E27                     	;# 
   313  1E28                     	;# 
   314  1E29                     	;# 
   315  1E2A                     	;# 
   316  1E2B                     	;# 
   317  1E2C                     	;# 
   318  1E2D                     	;# 
   319  1E2E                     	;# 
   320  1E2F                     	;# 
   321  1E30                     	;# 
   322  1E31                     	;# 
   323  1E32                     	;# 
   324  1E33                     	;# 
   325  1E34                     	;# 
   326  1E35                     	;# 
   327  1E36                     	;# 
   328  1E37                     	;# 
   329  1E8F                     	;# 
   330  1E90                     	;# 
   331  1E91                     	;# 
   332  1E92                     	;# 
   333  1E93                     	;# 
   334  1E9C                     	;# 
   335  1EA1                     	;# 
   336  1EA2                     	;# 
   337  1EB1                     	;# 
   338  1EBB                     	;# 
   339  1EBC                     	;# 
   340  1EBD                     	;# 
   341  1EBE                     	;# 
   342  1EC3                     	;# 
   343  1EC5                     	;# 
   344  1EC6                     	;# 
   345  1EC7                     	;# 
   346  1EC8                     	;# 
   347  1EC9                     	;# 
   348  1ECA                     	;# 
   349  1ECB                     	;# 
   350  1ECC                     	;# 
   351  1ECD                     	;# 
   352  1ECE                     	;# 
   353  1F10                     	;# 
   354  1F11                     	;# 
   355  1F12                     	;# 
   356  1F13                     	;# 
   357  1F14                     	;# 
   358  1F15                     	;# 
   359  1F16                     	;# 
   360  1F17                     	;# 
   361  1F18                     	;# 
   362  1F19                     	;# 
   363  1F1A                     	;# 
   364  1F1B                     	;# 
   365  1F1C                     	;# 
   366  1F1D                     	;# 
   367  1F1E                     	;# 
   368  1F1F                     	;# 
   369  1F20                     	;# 
   370  1F21                     	;# 
   371  1F22                     	;# 
   372  1F23                     	;# 
   373  1F24                     	;# 
   374  1F25                     	;# 
   375  1F26                     	;# 
   376  1F27                     	;# 
   377  1F38                     	;# 
   378  1F39                     	;# 
   379  1F3A                     	;# 
   380  1F3B                     	;# 
   381  1F3C                     	;# 
   382  1F3D                     	;# 
   383  1F3E                     	;# 
   384  1F3F                     	;# 
   385  1F43                     	;# 
   386  1F44                     	;# 
   387  1F45                     	;# 
   388  1F46                     	;# 
   389  1F47                     	;# 
   390  1F48                     	;# 
   391  1F49                     	;# 
   392  1F4A                     	;# 
   393  1F4E                     	;# 
   394  1F4F                     	;# 
   395  1F50                     	;# 
   396  1F51                     	;# 
   397  1F52                     	;# 
   398  1F53                     	;# 
   399  1F54                     	;# 
   400  1F55                     	;# 
   401  1F65                     	;# 
   402  1F68                     	;# 
   403  1F69                     	;# 
   404  1F6A                     	;# 
   405  1F6B                     	;# 
   406  1FE4                     	;# 
   407  1FE5                     	;# 
   408  1FE6                     	;# 
   409  1FE7                     	;# 
   410  1FE8                     	;# 
   411  1FE8                     	;# 
   412  1FE9                     	;# 
   413  1FEA                     	;# 
   414  1FEA                     	;# 
   415  1FEB                     	;# 
   416  1FED                     	;# 
   417  1FEE                     	;# 
   418  1FEF                     	;# 
   419                           
   420                           	psect	stringtext1
   421  07FF                     __pstringtext1:	
   422  07FF                     _restoreLevel:	
   423  07FF  340A               	retlw	10
   424  0800  34D7               	retlw	215
   425  0801  3483               	retlw	131
   426  0802  343F               	retlw	63
   427  0803                     __end_of_restoreLevel:	
   428                           
   429                           	psect	stringtext2
   430  0803                     __pstringtext2:	
   431  0803                     _upperLimit:	
   432  0803  34F6               	retlw	246
   433  0804  3428               	retlw	40
   434  0805  345C               	retlw	92
   435  0806  343F               	retlw	63
   436  0807                     __end_of_upperLimit:	
   437                           
   438                           	psect	nvBANK2
   439  0147                     __pnvBANK2:	
   440  0147                     _currentStatus:	
   441  0147                     	ds	1
   442  000C                     _PORTAbits	set	12
   443  000D                     _PORTBbits	set	13
   444  0014                     _TRISCbits	set	20
   445  001A                     _LATCbits	set	26
   446  0013                     _TRISBbits	set	19
   447  0012                     _TRISAbits	set	18
   448  000B                     _INTCONbits	set	11
   449  005F                     _GIE	set	95
   450  009D                     _ADCON0bits	set	157
   451  009E                     _ADCON1bits	set	158
   452  009B                     _ADRES	set	155
   453  04F7                     _ADFM	set	1271
   454  059F                     _T0CON1bits	set	1439
   455  2CF4                     _T016BIT	set	11508
   456  2CF7                     _T0EN	set	11511
   457  0717                     _PIE1bits	set	1815
   458  070D                     _PIR1bits	set	1805
   459  0716                     _PIE0bits	set	1814
   460  3865                     _TMR0IF	set	14437
   461  38B5                     _TMR0IE	set	14517
   462  081C                     _NVMDATL	set	2076
   463  081D                     _NVMDATH	set	2077
   464  081A                     _NVMADRL	set	2074
   465  081B                     _NVMADRH	set	2075
   466  081E                     _NVMCON1bits	set	2078
   467  090C                     _FVRCONbits	set	2316
   468  4866                     _FVRRDY	set	18534
   469  4867                     _FVREN	set	18535
   470  1F4E                     _ANSELCbits	set	8014
   471  1F43                     _ANSELBbits	set	8003
   472  1F38                     _ANSELAbits	set	7992
   473  F9FF                     _IOCAF7	set	63999
   474  F9F7                     _IOCAN7	set	63991
   475                           
   476                           ; #config settings
   477  0000                     
   478                           	psect	cinit
   479  00CD                     start_initialization:	
   480  00CD                     __initialization:	
   481                           
   482                           ; Clear objects allocated to BANK0
   483  00CD  0140               	movlb	0	; select bank0
   484  00CE  01DA               	clrf	__pbssBANK0& (0+127)
   485  00CF  01DB               	clrf	(__pbssBANK0+1)& (0+127)
   486  00D0  01DC               	clrf	(__pbssBANK0+2)& (0+127)
   487  00D1  01DD               	clrf	(__pbssBANK0+3)& (0+127)
   488                           
   489                           ; Clear objects allocated to BANK2
   490  00D2  3020               	movlw	low __pbssBANK2
   491  00D3  0084               	movwf	4
   492  00D4  3001               	movlw	high __pbssBANK2
   493  00D5  0085               	movwf	5
   494  00D6  3019               	movlw	25
   495  00D7  3189  2189         	fcall	clear_ram0
   496  00D9                     end_of_initialization:	
   497                           ;End of C runtime variable initialization code
   498                           
   499  00D9                     __end_of__initialization:	
   500  00D9  107E               	bcf	int$flags,0	;clear compiler interrupt flag (level 1)
   501  00DA  0140               	movlb	0
   502  00DB  318A  2A6E         	ljmp	_main	;jump to C main() function
   503                           
   504                           	psect	bssBANK0
   505  005A                     __pbssBANK0:	
   506  005A                     _timerCounter:	
   507  005A                     	ds	4
   508                           
   509                           	psect	bssBANK2
   510  0120                     __pbssBANK2:	
   511  0120                     _DIA_Table:	
   512  0120                     	ds	16
   513  0130                     _extNTCV:	
   514  0130                     	ds	4
   515  0134                     _intNTCV:	
   516  0134                     	ds	4
   517  0138                     _errReason:	
   518  0138                     	ds	1
   519                           
   520                           	psect	clrtext
   521  0989                     clear_ram0:	
   522                           ;	Called with FSR0 containing the base address, and
   523                           ;	WREG with the size to clear
   524                           
   525  0989  0064               	clrwdt	;clear the watchdog before getting into this loop
   526  098A                     clrloop0:	
   527  098A  0180               	clrf	0	;clear RAM location pointed to by FSR
   528  098B  3101               	addfsr 0,1
   529  098C  0B89               	decfsz	9,f	;Have we reached the end of clearing yet?
   530  098D  298A               	goto	clrloop0	;have we reached the end yet?
   531  098E  3400               	retlw	0	;all done for this memory range, return
   532                           
   533                           	psect	cstackBANK2
   534  0139                     __pcstackBANK2:	
   535  0139                     _getNTCV$1082:	
   536                           
   537                           ; 4 bytes @ 0x0
   538  0139                     	ds	4
   539  013D                     getNTCV@VDD:	
   540                           
   541                           ; 4 bytes @ 0x4
   542  013D                     	ds	4
   543  0141                     getNTCV@voltage:	
   544                           
   545                           ; 4 bytes @ 0x8
   546  0141                     	ds	4
   547  0145                     main@checkCount:	
   548                           
   549                           ; 2 bytes @ 0xC
   550  0145                     	ds	2
   551                           
   552                           	psect	cstackBANK1
   553  00A0                     __pcstackBANK1:	
   554  00A0                     ?___flge:	
   555  00A0                     ??_HeartBeatFlush:	
   556                           ; 1 bit 
   557                           
   558  00A0                     ?_ErrFlush:	
   559                           ; 1 bytes @ 0x0
   560                           
   561  00A0                     ??_ledFaultCheck:	
   562                           ; 1 bytes @ 0x0
   563                           
   564  00A0                     ?__Umul8_16:	
   565                           ; 1 bytes @ 0x0
   566                           
   567  00A0                     ?_read_DIA:	
   568                           ; 2 bytes @ 0x0
   569                           
   570  00A0                     ?___xxtofl:	
   571                           ; 2 bytes @ 0x0
   572                           
   573  00A0                     __Umul8_16@multiplicand:	
   574                           ; 4 bytes @ 0x0
   575                           
   576  00A0                     read_DIA@Add:	
   577                           ; 1 bytes @ 0x0
   578                           
   579  00A0                     ErrFlush@count:	
   580                           ; 2 bytes @ 0x0
   581                           
   582  00A0                     ___flge@ff1:	
   583                           ; 2 bytes @ 0x0
   584                           
   585  00A0                     ___xxtofl@val:	
   586                           ; 4 bytes @ 0x0
   587                           
   588                           
   589                           ; 4 bytes @ 0x0
   590  00A0                     	ds	2
   591  00A2                     ??__Umul8_16:	
   592  00A2                     ??_read_DIA:	
   593                           ; 1 bytes @ 0x2
   594                           
   595  00A2                     ??_initDIA:	
   596                           ; 1 bytes @ 0x2
   597                           
   598  00A2                     ??_init:	
   599                           ; 1 bytes @ 0x2
   600                           
   601  00A2                     ??_ErrFlush:	
   602                           ; 1 bytes @ 0x2
   603                           
   604                           
   605                           ; 1 bytes @ 0x2
   606  00A2                     	ds	2
   607  00A4                     ??___xxtofl:	
   608  00A4                     ErrFlush@i:	
   609                           ; 1 bytes @ 0x4
   610                           
   611  00A4                     __Umul8_16@product:	
   612                           ; 2 bytes @ 0x4
   613                           
   614  00A4                     ___flge@ff2:	
   615                           ; 2 bytes @ 0x4
   616                           
   617                           
   618                           ; 4 bytes @ 0x4
   619  00A4                     	ds	2
   620  00A6                     __Umul8_16@word_mpld:	
   621                           
   622                           ; 2 bytes @ 0x6
   623  00A6                     	ds	2
   624  00A8                     ??___flge:	
   625  00A8                     ___xxtofl@sign:	
   626                           ; 1 bytes @ 0x8
   627                           
   628  00A8                     __Umul8_16@multiplier:	
   629                           ; 1 bytes @ 0x8
   630                           
   631                           
   632                           ; 1 bytes @ 0x8
   633  00A8                     	ds	1
   634  00A9                     ___xxtofl@exp:	
   635                           
   636                           ; 1 bytes @ 0x9
   637  00A9                     	ds	1
   638  00AA                     ___xxtofl@arg:	
   639                           
   640                           ; 4 bytes @ 0xA
   641  00AA                     	ds	4
   642  00AE                     ?___fldiv:	
   643  00AE                     ___fldiv@a:	
   644                           ; 4 bytes @ 0xE
   645                           
   646                           
   647                           ; 4 bytes @ 0xE
   648  00AE                     	ds	4
   649  00B2                     ___fldiv@b:	
   650                           
   651                           ; 4 bytes @ 0x12
   652  00B2                     	ds	4
   653  00B6                     ??___fldiv:	
   654                           
   655                           ; 1 bytes @ 0x16
   656  00B6                     	ds	5
   657  00BB                     ___fldiv@rem:	
   658                           
   659                           ; 4 bytes @ 0x1B
   660  00BB                     	ds	4
   661  00BF                     ___fldiv@sign:	
   662                           
   663                           ; 1 bytes @ 0x1F
   664  00BF                     	ds	1
   665  00C0                     ___fldiv@new_exp:	
   666                           
   667                           ; 2 bytes @ 0x20
   668  00C0                     	ds	2
   669  00C2                     ___fldiv@grs:	
   670                           
   671                           ; 4 bytes @ 0x22
   672  00C2                     	ds	4
   673  00C6                     ___fldiv@bexp:	
   674                           
   675                           ; 1 bytes @ 0x26
   676  00C6                     	ds	1
   677  00C7                     ___fldiv@aexp:	
   678                           
   679                           ; 1 bytes @ 0x27
   680  00C7                     	ds	1
   681  00C8                     ?___flmul:	
   682  00C8                     ___flmul@b:	
   683                           ; 4 bytes @ 0x28
   684                           
   685                           
   686                           ; 4 bytes @ 0x28
   687  00C8                     	ds	4
   688  00CC                     ___flmul@a:	
   689                           
   690                           ; 4 bytes @ 0x2C
   691  00CC                     	ds	4
   692  00D0                     ??___flmul:	
   693                           
   694                           ; 1 bytes @ 0x30
   695  00D0                     	ds	5
   696  00D5                     ___flmul@sign:	
   697                           
   698                           ; 1 bytes @ 0x35
   699  00D5                     	ds	1
   700  00D6                     ___flmul@grs:	
   701                           
   702                           ; 4 bytes @ 0x36
   703  00D6                     	ds	4
   704  00DA                     ___flmul@aexp:	
   705                           
   706                           ; 1 bytes @ 0x3A
   707  00DA                     	ds	1
   708  00DB                     ___flmul@bexp:	
   709                           
   710                           ; 1 bytes @ 0x3B
   711  00DB                     	ds	1
   712  00DC                     ___flmul@prod:	
   713                           
   714                           ; 4 bytes @ 0x3C
   715  00DC                     	ds	4
   716  00E0                     ___flmul@temp:	
   717                           
   718                           ; 2 bytes @ 0x40
   719  00E0                     	ds	2
   720  00E2                     ?_getNTCV:	
   721  00E2                     getNTCV@channel:	
   722                           ; 4 bytes @ 0x42
   723                           
   724                           
   725                           ; 2 bytes @ 0x42
   726  00E2                     	ds	4
   727  00E6                     ??_getNTCV:	
   728                           
   729                           ; 1 bytes @ 0x46
   730  00E6                     	ds	1
   731  00E7                     ??_temperatureCheck:	
   732                           
   733                           ; 1 bytes @ 0x47
   734  00E7                     	ds	1
   735  00E8                     ??_ErrHanler:	
   736                           
   737                           ; 1 bytes @ 0x48
   738  00E8                     	ds	2
   739  00EA                     ?_main:	
   740  00EA                     main@argc:	
   741                           ; 2 bytes @ 0x4A
   742                           
   743                           
   744                           ; 2 bytes @ 0x4A
   745  00EA                     	ds	2
   746  00EC                     main@argv:	
   747                           
   748                           ; 2 bytes @ 0x4C
   749  00EC                     	ds	2
   750  00EE                     ??_main:	
   751                           
   752                           ; 1 bytes @ 0x4E
   753  00EE                     	ds	2
   754                           
   755                           	psect	cstackCOMMON
   756  0070                     __pcstackCOMMON:	
   757  0070                     ?i1___flge:	
   758  0070                     ?_initDIA:	
   759                           ; 1 bit 
   760                           
   761  0070                     ?_init:	
   762                           ; 1 bytes @ 0x0
   763                           
   764  0070                     ?_HeartBeatFlush:	
   765                           ; 1 bytes @ 0x0
   766                           
   767  0070                     ?_temperatureCheck:	
   768                           ; 1 bytes @ 0x0
   769                           
   770  0070                     ?_ledFaultCheck:	
   771                           ; 1 bytes @ 0x0
   772                           
   773  0070                     ?_ErrHanler:	
   774                           ; 1 bytes @ 0x0
   775                           
   776  0070                     ?_int_handler:	
   777                           ; 1 bytes @ 0x0
   778                           
   779  0070                     ?i1__Umul8_16:	
   780                           ; 1 bytes @ 0x0
   781                           
   782  0070                     ?i1___xxtofl:	
   783                           ; 2 bytes @ 0x0
   784                           
   785  0070                     i1__Umul8_16@multiplicand:	
   786                           ; 4 bytes @ 0x0
   787                           
   788  0070                     i1___flge@ff1:	
   789                           ; 1 bytes @ 0x0
   790                           
   791  0070                     i1___xxtofl@val:	
   792                           ; 4 bytes @ 0x0
   793                           
   794                           
   795                           ; 4 bytes @ 0x0
   796  0070                     	ds	2
   797  0072                     ??i1__Umul8_16:	
   798                           
   799                           ; 1 bytes @ 0x2
   800  0072                     	ds	2
   801  0074                     ??i1___xxtofl:	
   802  0074                     i1__Umul8_16@product:	
   803                           ; 1 bytes @ 0x4
   804                           
   805  0074                     i1___flge@ff2:	
   806                           ; 2 bytes @ 0x4
   807                           
   808                           
   809                           ; 4 bytes @ 0x4
   810  0074                     	ds	2
   811  0076                     i1__Umul8_16@word_mpld:	
   812                           
   813                           ; 2 bytes @ 0x6
   814  0076                     	ds	2
   815  0078                     ??i1___flge:	
   816  0078                     i1___xxtofl@sign:	
   817                           ; 1 bytes @ 0x8
   818                           
   819  0078                     i1__Umul8_16@multiplier:	
   820                           ; 1 bytes @ 0x8
   821                           
   822                           
   823                           ; 1 bytes @ 0x8
   824  0078                     	ds	1
   825  0079                     i1___xxtofl@exp:	
   826                           
   827                           ; 1 bytes @ 0x9
   828  0079                     	ds	1
   829  007A                     i1___xxtofl@arg:	
   830                           
   831                           ; 4 bytes @ 0xA
   832  007A                     	ds	4
   833                           
   834                           	psect	cstackBANK0
   835  0020                     __pcstackBANK0:	
   836  0020                     ?i1___fldiv:	
   837  0020                     i1___fldiv@a:	
   838                           ; 4 bytes @ 0x0
   839                           
   840                           
   841                           ; 4 bytes @ 0x0
   842  0020                     	ds	4
   843  0024                     i1___fldiv@b:	
   844                           
   845                           ; 4 bytes @ 0x4
   846  0024                     	ds	4
   847  0028                     ??i1___fldiv:	
   848                           
   849                           ; 1 bytes @ 0x8
   850  0028                     	ds	5
   851  002D                     i1___fldiv@rem:	
   852                           
   853                           ; 4 bytes @ 0xD
   854  002D                     	ds	4
   855  0031                     i1___fldiv@sign:	
   856                           
   857                           ; 1 bytes @ 0x11
   858  0031                     	ds	1
   859  0032                     i1___fldiv@new_exp:	
   860                           
   861                           ; 2 bytes @ 0x12
   862  0032                     	ds	2
   863  0034                     i1___fldiv@grs:	
   864                           
   865                           ; 4 bytes @ 0x14
   866  0034                     	ds	4
   867  0038                     i1___fldiv@bexp:	
   868                           
   869                           ; 1 bytes @ 0x18
   870  0038                     	ds	1
   871  0039                     i1___fldiv@aexp:	
   872                           
   873                           ; 1 bytes @ 0x19
   874  0039                     	ds	1
   875  003A                     ?i1___flmul:	
   876  003A                     i1___flmul@b:	
   877                           ; 4 bytes @ 0x1A
   878                           
   879                           
   880                           ; 4 bytes @ 0x1A
   881  003A                     	ds	4
   882  003E                     i1___flmul@a:	
   883                           
   884                           ; 4 bytes @ 0x1E
   885  003E                     	ds	4
   886  0042                     ??i1___flmul:	
   887                           
   888                           ; 1 bytes @ 0x22
   889  0042                     	ds	5
   890  0047                     i1___flmul@sign:	
   891                           
   892                           ; 1 bytes @ 0x27
   893  0047                     	ds	1
   894  0048                     i1___flmul@grs:	
   895                           
   896                           ; 4 bytes @ 0x28
   897  0048                     	ds	4
   898  004C                     i1___flmul@aexp:	
   899                           
   900                           ; 1 bytes @ 0x2C
   901  004C                     	ds	1
   902  004D                     i1___flmul@bexp:	
   903                           
   904                           ; 1 bytes @ 0x2D
   905  004D                     	ds	1
   906  004E                     i1___flmul@prod:	
   907                           
   908                           ; 4 bytes @ 0x2E
   909  004E                     	ds	4
   910  0052                     i1___flmul@temp:	
   911                           
   912                           ; 2 bytes @ 0x32
   913  0052                     	ds	2
   914  0054                     ??_int_handler:	
   915                           
   916                           ; 1 bytes @ 0x34
   917  0054                     	ds	2
   918  0056                     int_handler@voltage:	
   919                           
   920                           ; 4 bytes @ 0x36
   921  0056                     	ds	4
   922                           
   923                           	psect	maintext
   924  0A6E                     __pmaintext:	
   925 ;;
   926 ;;Main: autosize = 0, tempsize = 2, incstack = 0, save=0
   927 ;;
   928 ;; *************** function _main *****************
   929 ;; Defined at:
   930 ;;		line 475 in file "main.c"
   931 ;; Parameters:    Size  Location     Type
   932 ;;  argc            2   74[BANK1 ] int 
   933 ;;  argv            2   76[BANK1 ] PTR PTR unsigned char 
   934 ;; Auto vars:     Size  Location     Type
   935 ;;  checkCount      2   12[BANK2 ] int 
   936 ;; Return value:  Size  Location     Type
   937 ;;                  2   74[BANK1 ] int 
   938 ;; Registers used:
   939 ;;		wreg, fsr0l, fsr0h, status,2, status,0, pclath, cstack
   940 ;; Tracked objects:
   941 ;;		On entry : B3F/0
   942 ;;		On exit  : 0/0
   943 ;;		Unchanged: 0/0
   944 ;; Data sizes:     COMMON   BANK0   BANK1   BANK2   BANK3   BANK4   BANK5   BANK6
   945 ;;      Params:         0       0       4       0       0       0       0       0
   946 ;;      Locals:         0       0       0       2       0       0       0       0
   947 ;;      Temps:          0       0       2       0       0       0       0       0
   948 ;;      Totals:         0       0       6       2       0       0       0       0
   949 ;;Total ram usage:        8 bytes
   950 ;; Hardware stack levels required when called:    8
   951 ;; This function calls:
   952 ;;		_ErrHanler
   953 ;;		_HeartBeatFlush
   954 ;;		_init
   955 ;;		_ledFaultCheck
   956 ;;		_temperatureCheck
   957 ;; This function is called by:
   958 ;;		Startup code after reset
   959 ;; This function uses a non-reentrant model
   960 ;;
   961                           
   962                           
   963                           ;psect for function _main
   964  0A6E                     _main:	
   965                           
   966                           ;main.c: 477:     init();
   967                           
   968                           ;incstack = 0
   969                           ; Regs used in _main: [wreg-fsr0h+status,2+status,0+pclath+cstack]
   970  0A6E  318A  22BD  318A   	fcall	_init
   971                           
   972                           ;main.c: 478:     int checkCount = 0;
   973  0A71  0142               	movlb	2	; select bank2
   974  0A72  01C5               	clrf	main@checkCount^(0+256)
   975  0A73  01C6               	clrf	(main@checkCount+1)^(0+256)
   976  0A74  2AA9               	goto	l2670
   977  0A75                     l2646:	
   978                           
   979                           ;main.c: 484:                 HeartBeatFlush();
   980  0A75  3189  21E3  318A   	fcall	_HeartBeatFlush
   981                           
   982                           ;main.c: 487:                 if(LATCbits.LATC2 == 0){
   983  0A78  0140               	movlb	0	; select bank0
   984  0A79  1D1A               	btfss	26,2	;volatile
   985                           
   986                           ;main.c: 488:                     LATCbits.LATC7 = 0;
   987  0A7A  139A               	bcf	26,7	;volatile
   988                           
   989                           ;main.c: 490:                 if(checkCount >= 10){
   990  0A7B  0142               	movlb	2	; select bank2
   991  0A7C  0846               	movf	(main@checkCount+1)^(0+256),w
   992  0A7D  3A80               	xorlw	128
   993  0A7E  0141               	movlb	1	; select bank1
   994  0A7F  00EE               	movwf	??_main^(0+128)
   995  0A80  3080               	movlw	128
   996  0A81  026E               	subwf	??_main^(0+128),w
   997  0A82  1D03               	skipz
   998  0A83  2A87               	goto	u3865
   999  0A84  300A               	movlw	10
  1000  0A85  0142               	movlb	2	; select bank2
  1001  0A86  0245               	subwf	main@checkCount^(0+256),w
  1002  0A87                     u3865:	
  1003  0A87  1C03               	skipc
  1004  0A88  2A90               	goto	l2658
  1005                           
  1006                           ;main.c: 491:                   temperatureCheck();
  1007  0A89  318D  25B5  318A   	fcall	_temperatureCheck
  1008                           
  1009                           ;main.c: 492:                   checkCount = 0;
  1010  0A8C  0142               	movlb	2	; select bank2
  1011  0A8D  01C5               	clrf	main@checkCount^(0+256)
  1012  0A8E  01C6               	clrf	(main@checkCount+1)^(0+256)
  1013                           
  1014                           ;main.c: 493:                 } else {
  1015  0A8F  2A95               	goto	l2660
  1016  0A90                     l2658:	
  1017                           
  1018                           ;main.c: 494:                     checkCount ++;
  1019  0A90  3001               	movlw	1
  1020  0A91  0142               	movlb	2	; select bank2
  1021  0A92  07C5               	addwf	main@checkCount^(0+256),f
  1022  0A93  3000               	movlw	0
  1023  0A94  3DC6               	addwfc	(main@checkCount+1)^(0+256),f
  1024  0A95                     l2660:	
  1025                           
  1026                           ;main.c: 496:                ledFaultCheck();
  1027  0A95  318A  2205  318A   	fcall	_ledFaultCheck
  1028                           
  1029                           ;main.c: 497:             break;
  1030  0A98  2AA9               	goto	l2670
  1031  0A99                     l2662:	
  1032                           
  1033                           ;main.c: 501:                 if((errReason == BoardHiTempErr) || (errReason == LEDHiTem
      +                          pErr))
  1034  0A99  3003               	movlw	3
  1035  0A9A  0142               	movlb	2	; select bank2
  1036  0A9B  0638               	xorwf	_errReason^(0+256),w
  1037  0A9C  1903               	btfsc	3,2
  1038  0A9D  2AA2               	goto	l180
  1039  0A9E  3002               	movlw	2
  1040  0A9F  0638               	xorwf	_errReason^(0+256),w
  1041  0AA0  1D03               	btfss	3,2
  1042  0AA1  2AA6               	goto	l2666
  1043  0AA2                     l180:	
  1044                           
  1045                           ;main.c: 502:                 {;main.c: 503:                   LATCbits.LATC2 = 0;
  1046  0AA2  0140               	movlb	0	; select bank0
  1047  0AA3  111A               	bcf	26,2	;volatile
  1048                           
  1049                           ;main.c: 504:                   LATCbits.LATC5 = 0;
  1050  0AA4  129A               	bcf	26,5	;volatile
  1051                           
  1052                           ;main.c: 505:                   LATCbits.LATC7 = 1;
  1053  0AA5  179A               	bsf	26,7	;volatile
  1054  0AA6                     l2666:	
  1055                           
  1056                           ;main.c: 507:                ErrHanler();
  1057  0AA6  3187  27B8  318A   	fcall	_ErrHanler
  1058  0AA9                     l171:	
  1059                           ;main.c: 508:             break;
  1060                           
  1061  0AA9                     l2670:	
  1062  0AA9  0142               	movlb	2	; select bank2
  1063  0AAA  0847               	movf	_currentStatus^(0+256),w
  1064  0AAB  0141               	movlb	1	; select bank1
  1065  0AAC  00EE               	movwf	??_main^(0+128)
  1066  0AAD  01EF               	clrf	(??_main^(0+128)+1)
  1067                           
  1068                           ; Switch on 2 bytes has been partitioned into a top level switch of size 1, and 1 sub-sw
      +                          itches
  1069                           ; Switch size 1, requested type "simple"
  1070                           ; Number of cases is 1, Range of values is 0 to 0
  1071                           ; switch strategies available:
  1072                           ; Name         Instructions Cycles
  1073                           ; simple_byte            4     3 (average)
  1074                           ; direct_byte            8     6 (fixed)
  1075                           ; jumptable            260     6 (fixed)
  1076                           ;	Chosen strategy is simple_byte
  1077  0AAE  086F               	movf	(??_main+1)^(0+128),w
  1078  0AAF  3A00               	xorlw	0	; case 0
  1079  0AB0  1903               	skipnz
  1080  0AB1  2AB3               	goto	l2738
  1081  0AB2  2AA9               	goto	l171
  1082  0AB3                     l2738:	
  1083                           
  1084                           ; Switch size 1, requested type "simple"
  1085                           ; Number of cases is 2, Range of values is 0 to 2
  1086                           ; switch strategies available:
  1087                           ; Name         Instructions Cycles
  1088                           ; simple_byte            7     4 (average)
  1089                           ; direct_byte           12     6 (fixed)
  1090                           ; jumptable            260     6 (fixed)
  1091                           ;	Chosen strategy is simple_byte
  1092  0AB3  086E               	movf	??_main^(0+128),w
  1093  0AB4  3A00               	xorlw	0	; case 0
  1094  0AB5  1903               	skipnz
  1095  0AB6  2A75               	goto	l2646
  1096  0AB7  3A02               	xorlw	2	; case 2
  1097  0AB8  1903               	skipnz
  1098  0AB9  2A99               	goto	l2662
  1099  0ABA  2AA9               	goto	l171
  1100  0ABB  3180  28CB         	ljmp	start
  1101  0ABD                     __end_of_main:	
  1102                           
  1103                           	psect	text1
  1104  0ABD                     __ptext1:	
  1105 ;; *************** function _init *****************
  1106 ;; Defined at:
  1107 ;;		line 140 in file "main.c"
  1108 ;; Parameters:    Size  Location     Type
  1109 ;;		None
  1110 ;; Auto vars:     Size  Location     Type
  1111 ;;		None
  1112 ;; Return value:  Size  Location     Type
  1113 ;;                  1    wreg      void 
  1114 ;; Registers used:
  1115 ;;		wreg, status,2, status,0, pclath, cstack
  1116 ;; Tracked objects:
  1117 ;;		On entry : 0/0
  1118 ;;		On exit  : 0/0
  1119 ;;		Unchanged: 0/0
  1120 ;; Data sizes:     COMMON   BANK0   BANK1   BANK2   BANK3   BANK4   BANK5   BANK6
  1121 ;;      Params:         0       0       0       0       0       0       0       0
  1122 ;;      Locals:         0       0       0       0       0       0       0       0
  1123 ;;      Temps:          0       0       0       0       0       0       0       0
  1124 ;;      Totals:         0       0       0       0       0       0       0       0
  1125 ;;Total ram usage:        0 bytes
  1126 ;; Hardware stack levels used:    1
  1127 ;; Hardware stack levels required when called:    5
  1128 ;; This function calls:
  1129 ;;		_initDIA
  1130 ;; This function is called by:
  1131 ;;		_main
  1132 ;; This function uses a non-reentrant model
  1133 ;;
  1134                           
  1135                           
  1136                           ;psect for function _init
  1137  0ABD                     _init:	
  1138                           
  1139                           ;main.c: 141:    currentStatus = Init;
  1140                           
  1141                           ;incstack = 0
  1142                           ; Regs used in _init: [wreg+status,2+status,0+pclath+cstack]
  1143  0ABD  0142               	movlb	2	; select bank2
  1144  0ABE  01C7               	clrf	_currentStatus^(0+256)
  1145  0ABF  0AC7               	incf	_currentStatus^(0+256),f
  1146                           
  1147                           ;main.c: 143:    GIE = 1;
  1148  0AC0  178B               	bsf	11,7	;volatile
  1149                           
  1150                           ;main.c: 144:    INTCONbits.PEIE = 1;
  1151  0AC1  170B               	bsf	11,6	;volatile
  1152                           
  1153                           ;main.c: 147:    TRISAbits.TRISA0 = 1;
  1154  0AC2  0140               	movlb	0	; select bank0
  1155  0AC3  1412               	bsf	18,0	;volatile
  1156                           
  1157                           ;main.c: 148:    ANSELAbits.ANSA0 = 1;
  1158  0AC4  017E               	movlb	62	; select bank62
  1159  0AC5  1438               	bsf	56,0	;volatile
  1160                           
  1161                           ;main.c: 150:    TRISAbits.TRISA1 = 1;
  1162  0AC6  0140               	movlb	0	; select bank0
  1163  0AC7  1492               	bsf	18,1	;volatile
  1164                           
  1165                           ;main.c: 151:    ANSELAbits.ANSA1 = 1;
  1166  0AC8  017E               	movlb	62	; select bank62
  1167  0AC9  14B8               	bsf	56,1	;volatile
  1168                           
  1169                           ;main.c: 154:     TRISBbits.TRISB0 = 1;
  1170  0ACA  0140               	movlb	0	; select bank0
  1171  0ACB  1413               	bsf	19,0	;volatile
  1172                           
  1173                           ;main.c: 155:     ANSELBbits.ANSB0 = 0;
  1174  0ACC  017E               	movlb	62	; select bank62
  1175  0ACD  1043               	bcf	67,0	;volatile
  1176                           
  1177                           ;main.c: 159:     TRISAbits.TRISA7 = 1;
  1178  0ACE  0140               	movlb	0	; select bank0
  1179  0ACF  1792               	bsf	18,7	;volatile
  1180                           
  1181                           ;main.c: 160:     ANSELAbits.ANSA7 = 0;
  1182  0AD0  017E               	movlb	62	; select bank62
  1183  0AD1  13B8               	bcf	56,7	;volatile
  1184                           
  1185                           ;main.c: 163:     ANSELCbits.ANSC0 = 0;
  1186  0AD2  104E               	bcf	78,0	;volatile
  1187                           
  1188                           ;main.c: 164:     LATCbits.LATC0 = 0;
  1189  0AD3  0140               	movlb	0	; select bank0
  1190  0AD4  101A               	bcf	26,0	;volatile
  1191                           
  1192                           ;main.c: 165:     TRISCbits.TRISC0 = 1;
  1193  0AD5  1414               	bsf	20,0	;volatile
  1194                           
  1195                           ;main.c: 169:     LATCbits.LATC2 = 0;
  1196  0AD6  111A               	bcf	26,2	;volatile
  1197                           
  1198                           ;main.c: 170:     ANSELCbits.ANSC2 = 0;
  1199  0AD7  017E               	movlb	62	; select bank62
  1200  0AD8  114E               	bcf	78,2	;volatile
  1201                           
  1202                           ;main.c: 171:     TRISCbits.TRISC2 = 0;
  1203  0AD9  0140               	movlb	0	; select bank0
  1204  0ADA  1114               	bcf	20,2	;volatile
  1205                           
  1206                           ;main.c: 174:     LATCbits.LATC5 = 0;
  1207  0ADB  129A               	bcf	26,5	;volatile
  1208                           
  1209                           ;main.c: 175:     ANSELCbits.ANSC5 = 0;
  1210  0ADC  017E               	movlb	62	; select bank62
  1211  0ADD  12CE               	bcf	78,5	;volatile
  1212                           
  1213                           ;main.c: 176:     TRISCbits.TRISC5 = 0;
  1214  0ADE  0140               	movlb	0	; select bank0
  1215  0ADF  1294               	bcf	20,5	;volatile
  1216                           
  1217                           ;main.c: 179:     LATCbits.LATC7 = 0;
  1218  0AE0  139A               	bcf	26,7	;volatile
  1219                           
  1220                           ;main.c: 180:     ANSELCbits.ANSC7 = 0;
  1221  0AE1  017E               	movlb	62	; select bank62
  1222  0AE2  13CE               	bcf	78,7	;volatile
  1223                           
  1224                           ;main.c: 181:     TRISCbits.TRISC7 = 0;
  1225  0AE3  0140               	movlb	0	; select bank0
  1226  0AE4  1394               	bcf	20,7	;volatile
  1227                           
  1228                           ;main.c: 185:     PIE0bits.IOCIE = 1;
  1229  0AE5  014E               	movlb	14	; select bank14
  1230  0AE6  1616               	bsf	22,4	;volatile
  1231                           
  1232                           ;main.c: 186:     IOCAN7 = 1;
  1233  0AE7  017E               	movlb	62	; select bank62
  1234  0AE8  17BE               	bsf	62,7	;volatile
  1235                           
  1236                           ;main.c: 190:     FVRCONbits.ADFVR = 3;
  1237  0AE9  3003               	movlw	3
  1238  0AEA  0152               	movlb	18	; select bank18
  1239  0AEB  048C               	iorwf	12,f	;volatile
  1240                           
  1241                           ;main.c: 191:     FVRCONbits.CDAFVR = 3;
  1242  0AEC  300C               	movlw	12
  1243  0AED  048C               	iorwf	12,f	;volatile
  1244                           
  1245                           ;main.c: 192:     FVREN = 1;
  1246  0AEE  178C               	bsf	12,7	;volatile
  1247  0AEF                     l96:	
  1248                           ;main.c: 195:     }
  1249                           
  1250                           
  1251                           ;main.c: 193:     while(!FVRRDY){
  1252  0AEF  1F0C               	btfss	12,6	;volatile
  1253  0AF0  2AEF               	goto	l96
  1254                           
  1255                           ;main.c: 198:     ADCON1bits.ADCS = 0x01;
  1256  0AF1  0141               	movlb	1	; select bank1
  1257  0AF2  081E               	movf	30,w	;volatile
  1258  0AF3  398F               	andlw	-113
  1259  0AF4  3810               	iorlw	16
  1260  0AF5  009E               	movwf	30	;volatile
  1261                           
  1262                           ;main.c: 199:     ADCON1bits.ADPREF = 0;
  1263  0AF6  30FC               	movlw	-4
  1264  0AF7  059E               	andwf	30,f	;volatile
  1265                           
  1266                           ;main.c: 200:     ADCON0bits.CHS = 0x3F;
  1267  0AF8  30FC               	movlw	252
  1268  0AF9  049D               	iorwf	29,f	;volatile
  1269                           
  1270                           ;main.c: 201:     ADFM = 1;
  1271  0AFA  179E               	bsf	30,7	;volatile
  1272                           
  1273                           ;main.c: 202:     ADCON0bits.ADON = 0;
  1274  0AFB  101D               	bcf	29,0	;volatile
  1275                           
  1276                           ;main.c: 203:     PIR1bits.ADIF = 0;
  1277  0AFC  014E               	movlb	14	; select bank14
  1278  0AFD  100D               	bcf	13,0	;volatile
  1279                           
  1280                           ;main.c: 204:     PIE1bits.ADIE = 0;
  1281  0AFE  1017               	bcf	23,0	;volatile
  1282                           
  1283                           ;main.c: 209:      T0EN = 1;
  1284  0AFF  014B               	movlb	11	; select bank11
  1285  0B00  179E               	bsf	30,7	;volatile
  1286                           
  1287                           ;main.c: 210:      TMR0IE = 0;
  1288  0B01  014E               	movlb	14	; select bank14
  1289  0B02  1296               	bcf	22,5	;volatile
  1290                           
  1291                           ;main.c: 211:      T016BIT = 0;
  1292  0B03  014B               	movlb	11	; select bank11
  1293  0B04  121E               	bcf	30,4	;volatile
  1294                           
  1295                           ;main.c: 212:      T0CON1bits.T0ASYNC = 1;
  1296  0B05  161F               	bsf	31,4	;volatile
  1297                           
  1298                           ;main.c: 213:      T0CON1bits.T0CS = 5;
  1299  0B06  081F               	movf	31,w	;volatile
  1300  0B07  391F               	andlw	-225
  1301  0B08  38A0               	iorlw	160
  1302  0B09  009F               	movwf	31	;volatile
  1303                           
  1304                           ;main.c: 214:      T0CON1bits.T0CKPS = 8;
  1305  0B0A  081F               	movf	31,w	;volatile
  1306  0B0B  39F0               	andlw	-16
  1307  0B0C  3808               	iorlw	8
  1308  0B0D  009F               	movwf	31	;volatile
  1309                           
  1310                           ;main.c: 218:      initDIA();
  1311  0B0E  318C  240A         	fcall	_initDIA
  1312                           
  1313                           ;main.c: 220:      currentStatus = Normal;
  1314  0B10  0142               	movlb	2	; select bank2
  1315  0B11  01C7               	clrf	_currentStatus^(0+256)
  1316  0B12  0008               	return
  1317  0B13                     __end_of_init:	
  1318                           
  1319                           	psect	text2
  1320  0C0A                     __ptext2:	
  1321 ;; *************** function _initDIA *****************
  1322 ;; Defined at:
  1323 ;;		line 75 in file "main.c"
  1324 ;; Parameters:    Size  Location     Type
  1325 ;;		None
  1326 ;; Auto vars:     Size  Location     Type
  1327 ;;		None
  1328 ;; Return value:  Size  Location     Type
  1329 ;;                  1    wreg      void 
  1330 ;; Registers used:
  1331 ;;		wreg, status,2, pclath, cstack
  1332 ;; Tracked objects:
  1333 ;;		On entry : 0/0
  1334 ;;		On exit  : 0/0
  1335 ;;		Unchanged: 0/0
  1336 ;; Data sizes:     COMMON   BANK0   BANK1   BANK2   BANK3   BANK4   BANK5   BANK6
  1337 ;;      Params:         0       0       0       0       0       0       0       0
  1338 ;;      Locals:         0       0       0       0       0       0       0       0
  1339 ;;      Temps:          0       0       0       0       0       0       0       0
  1340 ;;      Totals:         0       0       0       0       0       0       0       0
  1341 ;;Total ram usage:        0 bytes
  1342 ;; Hardware stack levels used:    1
  1343 ;; Hardware stack levels required when called:    4
  1344 ;; This function calls:
  1345 ;;		_read_DIA
  1346 ;; This function is called by:
  1347 ;;		_init
  1348 ;; This function uses a non-reentrant model
  1349 ;;
  1350                           
  1351                           
  1352                           ;psect for function _initDIA
  1353  0C0A                     _initDIA:	
  1354                           
  1355                           ;main.c: 76:     DIA_Table.TSLR2 = read_DIA(0x8113);
  1356                           
  1357                           ;incstack = 0
  1358                           ; Regs used in _initDIA: [wreg+status,2+pclath+cstack]
  1359  0C0A  3013               	movlw	19
  1360  0C0B  0141               	movlb	1	; select bank1
  1361  0C0C  00A0               	movwf	read_DIA@Add^(0+128)
  1362  0C0D  3081               	movlw	129
  1363  0C0E  00A1               	movwf	(read_DIA@Add^(0+128)+1)
  1364  0C0F  3189  218F  318C   	fcall	_read_DIA
  1365  0C12  0141               	movlb	1	; select bank1
  1366  0C13  0821               	movf	(?_read_DIA+1)^(0+128),w
  1367  0C14  0142               	movlb	2	; select bank2
  1368  0C15  00A1               	movwf	(_DIA_Table+1)^(0+256)
  1369  0C16  0141               	movlb	1	; select bank1
  1370  0C17  0820               	movf	?_read_DIA^(0+128),w
  1371  0C18  0142               	movlb	2	; select bank2
  1372  0C19  00A0               	movwf	_DIA_Table^(0+256)
  1373                           
  1374                           ;main.c: 77:     DIA_Table.TSHR2 = read_DIA(0x8116);
  1375  0C1A  3016               	movlw	22
  1376  0C1B  0141               	movlb	1	; select bank1
  1377  0C1C  00A0               	movwf	read_DIA@Add^(0+128)
  1378  0C1D  3081               	movlw	129
  1379  0C1E  00A1               	movwf	(read_DIA@Add^(0+128)+1)
  1380  0C1F  3189  218F  318C   	fcall	_read_DIA
  1381  0C22  0141               	movlb	1	; select bank1
  1382  0C23  0821               	movf	(?_read_DIA+1)^(0+128),w
  1383  0C24  0142               	movlb	2	; select bank2
  1384  0C25  00A3               	movwf	((_DIA_Table+1)^(0+256)+2)
  1385  0C26  0141               	movlb	1	; select bank1
  1386  0C27  0820               	movf	?_read_DIA^(0+128),w
  1387  0C28  0142               	movlb	2	; select bank2
  1388  0C29  00A2               	movwf	(_DIA_Table^(0+256)+2)
  1389                           
  1390                           ;main.c: 78:     DIA_Table.FVRA1X = read_DIA(0x8118);
  1391  0C2A  3018               	movlw	24
  1392  0C2B  0141               	movlb	1	; select bank1
  1393  0C2C  00A0               	movwf	read_DIA@Add^(0+128)
  1394  0C2D  3081               	movlw	129
  1395  0C2E  00A1               	movwf	(read_DIA@Add^(0+128)+1)
  1396  0C2F  3189  218F  318C   	fcall	_read_DIA
  1397  0C32  0141               	movlb	1	; select bank1
  1398  0C33  0821               	movf	(?_read_DIA+1)^(0+128),w
  1399  0C34  0142               	movlb	2	; select bank2
  1400  0C35  00A5               	movwf	((_DIA_Table+1)^(0+256)+4)
  1401  0C36  0141               	movlb	1	; select bank1
  1402  0C37  0820               	movf	?_read_DIA^(0+128),w
  1403  0C38  0142               	movlb	2	; select bank2
  1404  0C39  00A4               	movwf	(_DIA_Table^(0+256)+4)
  1405                           
  1406                           ;main.c: 79:     DIA_Table.FVRA2X = read_DIA(0x8119);
  1407  0C3A  3019               	movlw	25
  1408  0C3B  0141               	movlb	1	; select bank1
  1409  0C3C  00A0               	movwf	read_DIA@Add^(0+128)
  1410  0C3D  3081               	movlw	129
  1411  0C3E  00A1               	movwf	(read_DIA@Add^(0+128)+1)
  1412  0C3F  3189  218F  318C   	fcall	_read_DIA
  1413  0C42  0141               	movlb	1	; select bank1
  1414  0C43  0821               	movf	(?_read_DIA+1)^(0+128),w
  1415  0C44  0142               	movlb	2	; select bank2
  1416  0C45  00A7               	movwf	((_DIA_Table+1)^(0+256)+6)
  1417  0C46  0141               	movlb	1	; select bank1
  1418  0C47  0820               	movf	?_read_DIA^(0+128),w
  1419  0C48  0142               	movlb	2	; select bank2
  1420  0C49  00A6               	movwf	(_DIA_Table^(0+256)+6)
  1421                           
  1422                           ;main.c: 80:     DIA_Table.FVRA4X = read_DIA(0x811A);
  1423  0C4A  301A               	movlw	26
  1424  0C4B  0141               	movlb	1	; select bank1
  1425  0C4C  00A0               	movwf	read_DIA@Add^(0+128)
  1426  0C4D  3081               	movlw	129
  1427  0C4E  00A1               	movwf	(read_DIA@Add^(0+128)+1)
  1428  0C4F  3189  218F  318C   	fcall	_read_DIA
  1429  0C52  0141               	movlb	1	; select bank1
  1430  0C53  0821               	movf	(?_read_DIA+1)^(0+128),w
  1431  0C54  0142               	movlb	2	; select bank2
  1432  0C55  00A9               	movwf	((_DIA_Table+1)^(0+256)+8)
  1433  0C56  0141               	movlb	1	; select bank1
  1434  0C57  0820               	movf	?_read_DIA^(0+128),w
  1435  0C58  0142               	movlb	2	; select bank2
  1436  0C59  00A8               	movwf	(_DIA_Table^(0+256)+8)
  1437                           
  1438                           ;main.c: 81:     DIA_Table.FVRC1X = read_DIA(0x811B);
  1439  0C5A  301B               	movlw	27
  1440  0C5B  0141               	movlb	1	; select bank1
  1441  0C5C  00A0               	movwf	read_DIA@Add^(0+128)
  1442  0C5D  3081               	movlw	129
  1443  0C5E  00A1               	movwf	(read_DIA@Add^(0+128)+1)
  1444  0C5F  3189  218F  318C   	fcall	_read_DIA
  1445  0C62  0141               	movlb	1	; select bank1
  1446  0C63  0821               	movf	(?_read_DIA+1)^(0+128),w
  1447  0C64  0142               	movlb	2	; select bank2
  1448  0C65  00AB               	movwf	((_DIA_Table+1)^(0+256)+10)
  1449  0C66  0141               	movlb	1	; select bank1
  1450  0C67  0820               	movf	?_read_DIA^(0+128),w
  1451  0C68  0142               	movlb	2	; select bank2
  1452  0C69  00AA               	movwf	(_DIA_Table^(0+256)+10)
  1453                           
  1454                           ;main.c: 82:     DIA_Table.FVRC2X = read_DIA(0x811C);
  1455  0C6A  301C               	movlw	28
  1456  0C6B  0141               	movlb	1	; select bank1
  1457  0C6C  00A0               	movwf	read_DIA@Add^(0+128)
  1458  0C6D  3081               	movlw	129
  1459  0C6E  00A1               	movwf	(read_DIA@Add^(0+128)+1)
  1460  0C6F  3189  218F  318C   	fcall	_read_DIA
  1461  0C72  0141               	movlb	1	; select bank1
  1462  0C73  0821               	movf	(?_read_DIA+1)^(0+128),w
  1463  0C74  0142               	movlb	2	; select bank2
  1464  0C75  00AD               	movwf	((_DIA_Table+1)^(0+256)+12)
  1465  0C76  0141               	movlb	1	; select bank1
  1466  0C77  0820               	movf	?_read_DIA^(0+128),w
  1467  0C78  0142               	movlb	2	; select bank2
  1468  0C79  00AC               	movwf	(_DIA_Table^(0+256)+12)
  1469                           
  1470                           ;main.c: 83:     DIA_Table.FVRC4X = read_DIA(0x811D);
  1471  0C7A  301D               	movlw	29
  1472  0C7B  0141               	movlb	1	; select bank1
  1473  0C7C  00A0               	movwf	read_DIA@Add^(0+128)
  1474  0C7D  3081               	movlw	129
  1475  0C7E  00A1               	movwf	(read_DIA@Add^(0+128)+1)
  1476  0C7F  3189  218F         	fcall	_read_DIA
  1477  0C81  0141               	movlb	1	; select bank1
  1478  0C82  0821               	movf	(?_read_DIA+1)^(0+128),w
  1479  0C83  0142               	movlb	2	; select bank2
  1480  0C84  00AF               	movwf	((_DIA_Table+1)^(0+256)+14)
  1481  0C85  0141               	movlb	1	; select bank1
  1482  0C86  0820               	movf	?_read_DIA^(0+128),w
  1483  0C87  0142               	movlb	2	; select bank2
  1484  0C88  00AE               	movwf	(_DIA_Table^(0+256)+14)
  1485  0C89  0008               	return
  1486  0C8A                     __end_of_initDIA:	
  1487                           
  1488                           	psect	text3
  1489  098F                     __ptext3:	
  1490 ;; *************** function _read_DIA *****************
  1491 ;; Defined at:
  1492 ;;		line 64 in file "main.c"
  1493 ;; Parameters:    Size  Location     Type
  1494 ;;  Add             2    0[BANK1 ] unsigned int 
  1495 ;; Auto vars:     Size  Location     Type
  1496 ;;		None
  1497 ;; Return value:  Size  Location     Type
  1498 ;;                  2    0[BANK1 ] unsigned int 
  1499 ;; Registers used:
  1500 ;;		wreg, status,2
  1501 ;; Tracked objects:
  1502 ;;		On entry : 0/0
  1503 ;;		On exit  : 0/0
  1504 ;;		Unchanged: 0/0
  1505 ;; Data sizes:     COMMON   BANK0   BANK1   BANK2   BANK3   BANK4   BANK5   BANK6
  1506 ;;      Params:         0       0       2       0       0       0       0       0
  1507 ;;      Locals:         0       0       0       0       0       0       0       0
  1508 ;;      Temps:          0       0       0       0       0       0       0       0
  1509 ;;      Totals:         0       0       2       0       0       0       0       0
  1510 ;;Total ram usage:        2 bytes
  1511 ;; Hardware stack levels used:    1
  1512 ;; Hardware stack levels required when called:    3
  1513 ;; This function calls:
  1514 ;;		Nothing
  1515 ;; This function is called by:
  1516 ;;		_initDIA
  1517 ;; This function uses a non-reentrant model
  1518 ;;
  1519                           
  1520                           
  1521                           ;psect for function _read_DIA
  1522  098F                     _read_DIA:	
  1523                           
  1524                           ;main.c: 64: unsigned int read_DIA (unsigned int Add);main.c: 65: {;main.c: 66:     NVMC
      +                          ON1bits.NVMREGS = 0x01;
  1525                           
  1526                           ;incstack = 0
  1527                           ; Regs used in _read_DIA: [wreg+status,2]
  1528  098F  0150               	movlb	16	; select bank16
  1529  0990  171E               	bsf	30,6	;volsfr
  1530                           
  1531                           ;main.c: 67:     NVMADRH = ((Add >> 8) & 0xFF);
  1532  0991  0141               	movlb	1	; select bank1
  1533  0992  0821               	movf	(read_DIA@Add+1)^(0+128),w
  1534  0993  0150               	movlb	16	; select bank16
  1535  0994  009B               	movwf	27	;volatile
  1536                           
  1537                           ;main.c: 68:     NVMADRL = (Add & 0xFF);
  1538  0995  0141               	movlb	1	; select bank1
  1539  0996  0820               	movf	read_DIA@Add^(0+128),w
  1540  0997  0150               	movlb	16	; select bank16
  1541  0998  009A               	movwf	26	;volatile
  1542                           
  1543                           ;main.c: 69:     NVMCON1bits.RD = 0x01;
  1544  0999  141E               	bsf	30,0	;volsfr
  1545  099A                     l87:	
  1546                           ;main.c: 70:     while (NVMCON1bits.RD == 1);
  1547                           
  1548  099A  181E               	btfsc	30,0	;volsfr
  1549  099B  299A               	goto	l87
  1550                           
  1551                           ;main.c: 71:     return ((NVMDATH<<8)+NVMDATL);
  1552  099C  081D               	movf	29,w	;volatile
  1553  099D  0141               	movlb	1	; select bank1
  1554  099E  00A1               	movwf	(?_read_DIA+1)^(0+128)
  1555  099F  0150               	movlb	16	; select bank16
  1556  09A0  081C               	movf	28,w	;volatile
  1557  09A1  0141               	movlb	1	; select bank1
  1558  09A2  00A0               	movwf	?_read_DIA^(0+128)
  1559  09A3  0008               	return
  1560  09A4                     __end_of_read_DIA:	
  1561                           
  1562                           	psect	text4
  1563  09E3                     __ptext4:	
  1564 ;; *************** function _HeartBeatFlush *****************
  1565 ;; Defined at:
  1566 ;;		line 299 in file "main.c"
  1567 ;; Parameters:    Size  Location     Type
  1568 ;;		None
  1569 ;; Auto vars:     Size  Location     Type
  1570 ;;		None
  1571 ;; Return value:  Size  Location     Type
  1572 ;;                  1    wreg      void 
  1573 ;; Registers used:
  1574 ;;		wreg
  1575 ;; Tracked objects:
  1576 ;;		On entry : 0/0
  1577 ;;		On exit  : 0/0
  1578 ;;		Unchanged: 0/0
  1579 ;; Data sizes:     COMMON   BANK0   BANK1   BANK2   BANK3   BANK4   BANK5   BANK6
  1580 ;;      Params:         0       0       0       0       0       0       0       0
  1581 ;;      Locals:         0       0       0       0       0       0       0       0
  1582 ;;      Temps:          0       0       2       0       0       0       0       0
  1583 ;;      Totals:         0       0       2       0       0       0       0       0
  1584 ;;Total ram usage:        2 bytes
  1585 ;; Hardware stack levels used:    1
  1586 ;; Hardware stack levels required when called:    3
  1587 ;; This function calls:
  1588 ;;		Nothing
  1589 ;; This function is called by:
  1590 ;;		_main
  1591 ;; This function uses a non-reentrant model
  1592 ;;
  1593                           
  1594                           
  1595                           ;psect for function _HeartBeatFlush
  1596  09E3                     _HeartBeatFlush:	
  1597                           
  1598                           ;main.c: 301:     TRISCbits.TRISC0 = 1;
  1599                           
  1600                           ;incstack = 0
  1601                           ; Regs used in _HeartBeatFlush: [wreg]
  1602  09E3  0140               	movlb	0	; select bank0
  1603  09E4  1414               	bsf	20,0	;volatile
  1604                           
  1605                           ;main.c: 302:     LATCbits.LATC0 = 0;
  1606  09E5  101A               	bcf	26,0	;volatile
  1607                           
  1608                           ;main.c: 303:     _delay((unsigned long)((250)*(32000000/4000.0)));
  1609  09E6  300B               	movlw	11
  1610  09E7  0141               	movlb	1	; select bank1
  1611  09E8  00A1               	movwf	(??_HeartBeatFlush^(0+128)+1)
  1612  09E9  3026               	movlw	38
  1613  09EA  00A0               	movwf	??_HeartBeatFlush^(0+128)
  1614  09EB  305D               	movlw	93
  1615  09EC                     u3897:	
  1616  09EC  0B89               	decfsz	9,f
  1617  09ED  29EC               	goto	u3897
  1618  09EE  0BA0               	decfsz	??_HeartBeatFlush^(0+128),f
  1619  09EF  29EC               	goto	u3897
  1620  09F0  0BA1               	decfsz	(??_HeartBeatFlush^(0+128)+1),f
  1621  09F1  29EC               	goto	u3897
  1622  09F2  3200               	nop2
  1623                           
  1624                           ;main.c: 304:     TRISCbits.TRISC0 = 0;
  1625  09F3  0140               	movlb	0	; select bank0
  1626  09F4  1014               	bcf	20,0	;volatile
  1627                           
  1628                           ;main.c: 305:     _delay((unsigned long)((250)*(32000000/4000.0)));
  1629  09F5  300B               	movlw	11
  1630  09F6  0141               	movlb	1	; select bank1
  1631  09F7  00A1               	movwf	(??_HeartBeatFlush^(0+128)+1)
  1632  09F8  3026               	movlw	38
  1633  09F9  00A0               	movwf	??_HeartBeatFlush^(0+128)
  1634  09FA  305D               	movlw	93
  1635  09FB                     u3907:	
  1636  09FB  0B89               	decfsz	9,f
  1637  09FC  29FB               	goto	u3907
  1638  09FD  0BA0               	decfsz	??_HeartBeatFlush^(0+128),f
  1639  09FE  29FB               	goto	u3907
  1640  09FF  0BA1               	decfsz	(??_HeartBeatFlush^(0+128)+1),f
  1641  0A00  29FB               	goto	u3907
  1642  0A01  3200               	nop2
  1643                           
  1644                           ;main.c: 306:     TRISCbits.TRISC0 = 1;
  1645  0A02  0140               	movlb	0	; select bank0
  1646  0A03  1414               	bsf	20,0	;volatile
  1647  0A04  0008               	return
  1648  0A05                     __end_of_HeartBeatFlush:	
  1649                           
  1650                           	psect	text5
  1651  07B8                     __ptext5:	
  1652 ;; *************** function _ErrHanler *****************
  1653 ;; Defined at:
  1654 ;;		line 370 in file "main.c"
  1655 ;; Parameters:    Size  Location     Type
  1656 ;;		None
  1657 ;; Auto vars:     Size  Location     Type
  1658 ;;		None
  1659 ;; Return value:  Size  Location     Type
  1660 ;;                  1    wreg      void 
  1661 ;; Registers used:
  1662 ;;		wreg, fsr0l, fsr0h, status,2, status,0, pclath, cstack
  1663 ;; Tracked objects:
  1664 ;;		On entry : 0/0
  1665 ;;		On exit  : 0/0
  1666 ;;		Unchanged: 0/0
  1667 ;; Data sizes:     COMMON   BANK0   BANK1   BANK2   BANK3   BANK4   BANK5   BANK6
  1668 ;;      Params:         0       0       0       0       0       0       0       0
  1669 ;;      Locals:         0       0       0       0       0       0       0       0
  1670 ;;      Temps:          0       0       2       0       0       0       0       0
  1671 ;;      Totals:         0       0       2       0       0       0       0       0
  1672 ;;Total ram usage:        2 bytes
  1673 ;; Hardware stack levels used:    1
  1674 ;; Hardware stack levels required when called:    7
  1675 ;; This function calls:
  1676 ;;		_ErrFlush
  1677 ;;		_ledFaultCheck
  1678 ;;		_temperatureCheck
  1679 ;; This function is called by:
  1680 ;;		_main
  1681 ;; This function uses a non-reentrant model
  1682 ;;
  1683                           
  1684                           
  1685                           ;psect for function _ErrHanler
  1686  07B8                     _ErrHanler:	
  1687                           
  1688                           ;main.c: 372:     if(currentStatus == Error){
  1689                           
  1690                           ;incstack = 0
  1691                           ; Regs used in _ErrHanler: [wreg-fsr0h+status,2+status,0+pclath+cstack]
  1692  07B8  3002               	movlw	2
  1693  07B9  0142               	movlb	2	; select bank2
  1694  07BA  0647               	xorwf	_currentStatus^(0+256),w
  1695  07BB  1D03               	btfss	3,2
  1696  07BC  0008               	return
  1697  07BD  2FE7               	goto	l2252
  1698  07BE                     l143:	
  1699                           ;main.c: 375:         {;main.c: 376:             case InitErr:
  1700                           
  1701                           
  1702                           ;main.c: 377:                  LATCbits.LATC0 = 0;
  1703  07BE  0140               	movlb	0	; select bank0
  1704  07BF  101A               	bcf	26,0	;volatile
  1705                           
  1706                           ;main.c: 378:                  TRISCbits.TRISC0 = 0;
  1707  07C0  1014               	bcf	20,0	;volatile
  1708                           
  1709                           ;main.c: 379:                  break;
  1710  07C1  0008               	return
  1711  07C2                     l2242:	
  1712                           
  1713                           ;main.c: 382:                 ErrFlush(2);
  1714  07C2  3002               	movlw	2
  1715  07C3  00A0               	movwf	ErrFlush@count^(0+128)
  1716  07C4  3000               	movlw	0
  1717  07C5  00A1               	movwf	(ErrFlush@count^(0+128)+1)
  1718  07C6  318A  222B  3187   	fcall	_ErrFlush
  1719                           
  1720                           ;main.c: 383:                 temperatureCheck();
  1721  07C9  318D  25B5         	fcall	_temperatureCheck
  1722                           
  1723                           ;main.c: 384:                 break;
  1724  07CB  0008               	return
  1725  07CC                     l2244:	
  1726                           
  1727                           ;main.c: 386:                  ErrFlush(3);
  1728  07CC  3003               	movlw	3
  1729  07CD  00A0               	movwf	ErrFlush@count^(0+128)
  1730  07CE  3000               	movlw	0
  1731  07CF  00A1               	movwf	(ErrFlush@count^(0+128)+1)
  1732  07D0  318A  222B  3187   	fcall	_ErrFlush
  1733                           
  1734                           ;main.c: 387:                 temperatureCheck();
  1735  07D3  318D  25B5         	fcall	_temperatureCheck
  1736                           
  1737                           ;main.c: 388:                  break;
  1738  07D5  0008               	return
  1739  07D6                     l2246:	
  1740                           
  1741                           ;main.c: 390:                  ErrFlush(4);
  1742  07D6  3004               	movlw	4
  1743  07D7  00A0               	movwf	ErrFlush@count^(0+128)
  1744  07D8  3000               	movlw	0
  1745  07D9  00A1               	movwf	(ErrFlush@count^(0+128)+1)
  1746  07DA  318A  222B  3187   	fcall	_ErrFlush
  1747                           
  1748                           ;main.c: 391:                  ledFaultCheck();
  1749  07DD  318A  2205         	fcall	_ledFaultCheck
  1750                           
  1751                           ;main.c: 392:             break;
  1752  07DF  0008               	return
  1753  07E0                     l2248:	
  1754                           
  1755                           ;main.c: 394:                  ErrFlush(5);
  1756  07E0  3005               	movlw	5
  1757  07E1  00A0               	movwf	ErrFlush@count^(0+128)
  1758  07E2  3000               	movlw	0
  1759  07E3  00A1               	movwf	(ErrFlush@count^(0+128)+1)
  1760  07E4  318A  222B         	fcall	_ErrFlush
  1761                           
  1762                           ;main.c: 395:             break;
  1763  07E6  0008               	return
  1764  07E7                     l2252:	
  1765  07E7  0838               	movf	_errReason^(0+256),w
  1766  07E8  0141               	movlb	1	; select bank1
  1767  07E9  00E8               	movwf	??_ErrHanler^(0+128)
  1768  07EA  01E9               	clrf	(??_ErrHanler^(0+128)+1)
  1769                           
  1770                           ; Switch on 2 bytes has been partitioned into a top level switch of size 1, and 1 sub-sw
      +                          itches
  1771                           ; Switch size 1, requested type "simple"
  1772                           ; Number of cases is 1, Range of values is 0 to 0
  1773                           ; switch strategies available:
  1774                           ; Name         Instructions Cycles
  1775                           ; simple_byte            4     3 (average)
  1776                           ; direct_byte            8     6 (fixed)
  1777                           ; jumptable            260     6 (fixed)
  1778                           ;	Chosen strategy is simple_byte
  1779  07EB  0869               	movf	(??_ErrHanler+1)^(0+128),w
  1780  07EC  3A00               	xorlw	0	; case 0
  1781  07ED  1903               	skipnz
  1782  07EE  2FF0               	goto	l2740
  1783  07EF  2FE0               	goto	l2248
  1784  07F0                     l2740:	
  1785                           
  1786                           ; Switch size 1, requested type "simple"
  1787                           ; Number of cases is 4, Range of values is 1 to 4
  1788                           ; switch strategies available:
  1789                           ; Name         Instructions Cycles
  1790                           ; simple_byte           13     7 (average)
  1791                           ; direct_byte           17     9 (fixed)
  1792                           ; jumptable            263     9 (fixed)
  1793                           ;	Chosen strategy is simple_byte
  1794  07F0  0868               	movf	??_ErrHanler^(0+128),w
  1795  07F1  3A01               	xorlw	1	; case 1
  1796  07F2  1903               	skipnz
  1797  07F3  2FBE               	goto	l143
  1798  07F4  3A03               	xorlw	3	; case 2
  1799  07F5  1903               	skipnz
  1800  07F6  2FC2               	goto	l2242
  1801  07F7  3A01               	xorlw	1	; case 3
  1802  07F8  1903               	skipnz
  1803  07F9  2FCC               	goto	l2244
  1804  07FA  3A07               	xorlw	7	; case 4
  1805  07FB  1903               	skipnz
  1806  07FC  2FD6               	goto	l2246
  1807  07FD  2FE0               	goto	l2248
  1808  07FE  0008               	return
  1809  07FF                     __end_of_ErrHanler:	
  1810                           
  1811                           	psect	text6
  1812  0DB5                     __ptext6:	
  1813 ;; *************** function _temperatureCheck *****************
  1814 ;; Defined at:
  1815 ;;		line 333 in file "main.c"
  1816 ;; Parameters:    Size  Location     Type
  1817 ;;		None
  1818 ;; Auto vars:     Size  Location     Type
  1819 ;;		None
  1820 ;; Return value:  Size  Location     Type
  1821 ;;                  1    wreg      void 
  1822 ;; Registers used:
  1823 ;;		wreg, status,2, status,0, pclath, cstack
  1824 ;; Tracked objects:
  1825 ;;		On entry : 0/0
  1826 ;;		On exit  : 0/0
  1827 ;;		Unchanged: 0/0
  1828 ;; Data sizes:     COMMON   BANK0   BANK1   BANK2   BANK3   BANK4   BANK5   BANK6
  1829 ;;      Params:         0       0       0       0       0       0       0       0
  1830 ;;      Locals:         0       0       0       0       0       0       0       0
  1831 ;;      Temps:          0       0       1       0       0       0       0       0
  1832 ;;      Totals:         0       0       1       0       0       0       0       0
  1833 ;;Total ram usage:        1 bytes
  1834 ;; Hardware stack levels used:    1
  1835 ;; Hardware stack levels required when called:    6
  1836 ;; This function calls:
  1837 ;;		___flge
  1838 ;;		_getNTCV
  1839 ;; This function is called by:
  1840 ;;		_ErrHanler
  1841 ;;		_main
  1842 ;; This function uses a non-reentrant model
  1843 ;;
  1844                           
  1845                           
  1846                           ;psect for function _temperatureCheck
  1847  0DB5                     _temperatureCheck:	
  1848                           
  1849                           ;main.c: 334:     intNTCV = getNTCV(0x00);
  1850                           
  1851                           ;incstack = 0
  1852                           ; Regs used in _temperatureCheck: [wreg+status,2+status,0+pclath+cstack]
  1853  0DB5  3000               	movlw	0
  1854  0DB6  0141               	movlb	1	; select bank1
  1855  0DB7  00E2               	movwf	getNTCV@channel^(0+128)
  1856  0DB8  00E3               	movwf	(getNTCV@channel+1)^(0+128)
  1857  0DB9  3186  26AF  318D   	fcall	_getNTCV
  1858  0DBC  0141               	movlb	1	; select bank1
  1859  0DBD  0865               	movf	(?_getNTCV+3)^(0+128),w
  1860  0DBE  0142               	movlb	2	; select bank2
  1861  0DBF  00B7               	movwf	(_intNTCV+3)^(0+256)
  1862  0DC0  0141               	movlb	1	; select bank1
  1863  0DC1  0864               	movf	(?_getNTCV+2)^(0+128),w
  1864  0DC2  0142               	movlb	2	; select bank2
  1865  0DC3  00B6               	movwf	(_intNTCV+2)^(0+256)
  1866  0DC4  0141               	movlb	1	; select bank1
  1867  0DC5  0863               	movf	(?_getNTCV+1)^(0+128),w
  1868  0DC6  0142               	movlb	2	; select bank2
  1869  0DC7  00B5               	movwf	(_intNTCV+1)^(0+256)
  1870  0DC8  0141               	movlb	1	; select bank1
  1871  0DC9  0862               	movf	?_getNTCV^(0+128),w
  1872  0DCA  0142               	movlb	2	; select bank2
  1873  0DCB  00B4               	movwf	_intNTCV^(0+256)
  1874                           
  1875                           ;main.c: 335:     extNTCV = getNTCV(0x01);
  1876  0DCC  3001               	movlw	1
  1877  0DCD  0141               	movlb	1	; select bank1
  1878  0DCE  00E2               	movwf	getNTCV@channel^(0+128)
  1879  0DCF  3000               	movlw	0
  1880  0DD0  00E3               	movwf	(getNTCV@channel^(0+128)+1)
  1881  0DD1  3186  26AF  318D   	fcall	_getNTCV
  1882  0DD4  0141               	movlb	1	; select bank1
  1883  0DD5  0865               	movf	(?_getNTCV+3)^(0+128),w
  1884  0DD6  0142               	movlb	2	; select bank2
  1885  0DD7  00B3               	movwf	(_extNTCV+3)^(0+256)
  1886  0DD8  0141               	movlb	1	; select bank1
  1887  0DD9  0864               	movf	(?_getNTCV+2)^(0+128),w
  1888  0DDA  0142               	movlb	2	; select bank2
  1889  0DDB  00B2               	movwf	(_extNTCV+2)^(0+256)
  1890  0DDC  0141               	movlb	1	; select bank1
  1891  0DDD  0863               	movf	(?_getNTCV+1)^(0+128),w
  1892  0DDE  0142               	movlb	2	; select bank2
  1893  0DDF  00B1               	movwf	(_extNTCV+1)^(0+256)
  1894  0DE0  0141               	movlb	1	; select bank1
  1895  0DE1  0862               	movf	?_getNTCV^(0+128),w
  1896  0DE2  0142               	movlb	2	; select bank2
  1897  0DE3  00B0               	movwf	_extNTCV^(0+256)
  1898                           
  1899                           ;main.c: 336:     if(currentStatus == Normal){
  1900  0DE4  0847               	movf	_currentStatus^(0+256),w
  1901  0DE5  1D03               	btfss	3,2
  1902  0DE6  2E39               	goto	l2158
  1903                           
  1904                           ;main.c: 337:         if( intNTCV < upperLimit){
  1905  0DE7  0837               	movf	(_intNTCV+3)^(0+256),w
  1906  0DE8  0141               	movlb	1	; select bank1
  1907  0DE9  00A3               	movwf	(___flge@ff1+3)^(0+128)
  1908  0DEA  0142               	movlb	2	; select bank2
  1909  0DEB  0836               	movf	(_intNTCV+2)^(0+256),w
  1910  0DEC  0141               	movlb	1	; select bank1
  1911  0DED  00A2               	movwf	(___flge@ff1+2)^(0+128)
  1912  0DEE  0142               	movlb	2	; select bank2
  1913  0DEF  0835               	movf	(_intNTCV+1)^(0+256),w
  1914  0DF0  0141               	movlb	1	; select bank1
  1915  0DF1  00A1               	movwf	(___flge@ff1+1)^(0+128)
  1916  0DF2  0142               	movlb	2	; select bank2
  1917  0DF3  0834               	movf	_intNTCV^(0+256),w
  1918  0DF4  0141               	movlb	1	; select bank1
  1919  0DF5  00A0               	movwf	___flge@ff1^(0+128)
  1920  0DF6  303F               	movlw	63
  1921  0DF7  00A7               	movwf	(___flge@ff2+3)^(0+128)
  1922  0DF8  305C               	movlw	92
  1923  0DF9  00A6               	movwf	(___flge@ff2+2)^(0+128)
  1924  0DFA  3028               	movlw	40
  1925  0DFB  00A5               	movwf	(___flge@ff2+1)^(0+128)
  1926  0DFC  30F6               	movlw	246
  1927  0DFD  00A4               	movwf	___flge@ff2^(0+128)
  1928  0DFE  318B  238E  318D   	fcall	___flge
  1929  0E01  1803               	btfsc	3,0
  1930  0E02  2E0F               	goto	l2154
  1931                           
  1932                           ;main.c: 338:             currentStatus = Error;
  1933  0E03  3002               	movlw	2
  1934  0E04  0141               	movlb	1	; select bank1
  1935  0E05  00E7               	movwf	??_temperatureCheck^(0+128)
  1936  0E06  0867               	movf	??_temperatureCheck^(0+128),w
  1937  0E07  0142               	movlb	2	; select bank2
  1938  0E08  00C7               	movwf	_currentStatus^(0+256)
  1939                           
  1940                           ;main.c: 339:             errReason = BoardHiTempErr;
  1941  0E09  3003               	movlw	3
  1942  0E0A  0141               	movlb	1	; select bank1
  1943  0E0B  00E7               	movwf	??_temperatureCheck^(0+128)
  1944  0E0C  0867               	movf	??_temperatureCheck^(0+128),w
  1945  0E0D  0142               	movlb	2	; select bank2
  1946  0E0E  00B8               	movwf	_errReason^(0+256)
  1947  0E0F                     l2154:	
  1948                           
  1949                           ;main.c: 341:         if( extNTCV < upperLimit) {
  1950  0E0F  0142               	movlb	2	; select bank2
  1951  0E10  0833               	movf	(_extNTCV+3)^(0+256),w
  1952  0E11  0141               	movlb	1	; select bank1
  1953  0E12  00A3               	movwf	(___flge@ff1+3)^(0+128)
  1954  0E13  0142               	movlb	2	; select bank2
  1955  0E14  0832               	movf	(_extNTCV+2)^(0+256),w
  1956  0E15  0141               	movlb	1	; select bank1
  1957  0E16  00A2               	movwf	(___flge@ff1+2)^(0+128)
  1958  0E17  0142               	movlb	2	; select bank2
  1959  0E18  0831               	movf	(_extNTCV+1)^(0+256),w
  1960  0E19  0141               	movlb	1	; select bank1
  1961  0E1A  00A1               	movwf	(___flge@ff1+1)^(0+128)
  1962  0E1B  0142               	movlb	2	; select bank2
  1963  0E1C  0830               	movf	_extNTCV^(0+256),w
  1964  0E1D  0141               	movlb	1	; select bank1
  1965  0E1E  00A0               	movwf	___flge@ff1^(0+128)
  1966  0E1F  303F               	movlw	63
  1967  0E20  00A7               	movwf	(___flge@ff2+3)^(0+128)
  1968  0E21  305C               	movlw	92
  1969  0E22  00A6               	movwf	(___flge@ff2+2)^(0+128)
  1970  0E23  3028               	movlw	40
  1971  0E24  00A5               	movwf	(___flge@ff2+1)^(0+128)
  1972  0E25  30F6               	movlw	246
  1973  0E26  00A4               	movwf	___flge@ff2^(0+128)
  1974  0E27  318B  238E  318D   	fcall	___flge
  1975  0E2A  1803               	btfsc	3,0
  1976  0E2B  0008               	return
  1977                           
  1978                           ;main.c: 342:             currentStatus = Error;
  1979  0E2C  3002               	movlw	2
  1980  0E2D  0141               	movlb	1	; select bank1
  1981  0E2E  00E7               	movwf	??_temperatureCheck^(0+128)
  1982  0E2F  0867               	movf	??_temperatureCheck^(0+128),w
  1983  0E30  0142               	movlb	2	; select bank2
  1984  0E31  00C7               	movwf	_currentStatus^(0+256)
  1985                           
  1986                           ;main.c: 343:             errReason = LEDHiTempErr;
  1987  0E32  3002               	movlw	2
  1988  0E33  0141               	movlb	1	; select bank1
  1989  0E34  00E7               	movwf	??_temperatureCheck^(0+128)
  1990  0E35  0867               	movf	??_temperatureCheck^(0+128),w
  1991  0E36  0142               	movlb	2	; select bank2
  1992  0E37  00B8               	movwf	_errReason^(0+256)
  1993  0E38  0008               	return
  1994  0E39                     l2158:	
  1995  0E39  3002               	movlw	2
  1996  0E3A  0647               	xorwf	_currentStatus^(0+256),w
  1997  0E3B  1D03               	btfss	3,2
  1998  0E3C  0008               	return
  1999                           
  2000                           ;main.c: 347:         if(((intNTCV > restoreLevel) && (errReason == BoardHiTempErr)) || 
      +                          ((extNTCV > restoreLevel) && (errReason == LEDHiTempErr))){
  2001  0E3D  303F               	movlw	63
  2002  0E3E  0141               	movlb	1	; select bank1
  2003  0E3F  00A3               	movwf	(___flge@ff1+3)^(0+128)
  2004  0E40  3083               	movlw	131
  2005  0E41  00A2               	movwf	(___flge@ff1+2)^(0+128)
  2006  0E42  30D7               	movlw	215
  2007  0E43  00A1               	movwf	(___flge@ff1+1)^(0+128)
  2008  0E44  300A               	movlw	10
  2009  0E45  00A0               	movwf	___flge@ff1^(0+128)
  2010  0E46  0142               	movlb	2	; select bank2
  2011  0E47  0837               	movf	(_intNTCV+3)^(0+256),w
  2012  0E48  0141               	movlb	1	; select bank1
  2013  0E49  00A7               	movwf	(___flge@ff2+3)^(0+128)
  2014  0E4A  0142               	movlb	2	; select bank2
  2015  0E4B  0836               	movf	(_intNTCV+2)^(0+256),w
  2016  0E4C  0141               	movlb	1	; select bank1
  2017  0E4D  00A6               	movwf	(___flge@ff2+2)^(0+128)
  2018  0E4E  0142               	movlb	2	; select bank2
  2019  0E4F  0835               	movf	(_intNTCV+1)^(0+256),w
  2020  0E50  0141               	movlb	1	; select bank1
  2021  0E51  00A5               	movwf	(___flge@ff2+1)^(0+128)
  2022  0E52  0142               	movlb	2	; select bank2
  2023  0E53  0834               	movf	_intNTCV^(0+256),w
  2024  0E54  0141               	movlb	1	; select bank1
  2025  0E55  00A4               	movwf	___flge@ff2^(0+128)
  2026  0E56  318B  238E  318D   	fcall	___flge
  2027  0E59  1803               	btfsc	3,0
  2028  0E5A  2E60               	goto	l2164
  2029  0E5B  3003               	movlw	3
  2030  0E5C  0142               	movlb	2	; select bank2
  2031  0E5D  0638               	xorwf	_errReason^(0+256),w
  2032  0E5E  1903               	btfsc	3,2
  2033  0E5F  2E83               	goto	l2168
  2034  0E60                     l2164:	
  2035  0E60  303F               	movlw	63
  2036  0E61  0141               	movlb	1	; select bank1
  2037  0E62  00A3               	movwf	(___flge@ff1+3)^(0+128)
  2038  0E63  3083               	movlw	131
  2039  0E64  00A2               	movwf	(___flge@ff1+2)^(0+128)
  2040  0E65  30D7               	movlw	215
  2041  0E66  00A1               	movwf	(___flge@ff1+1)^(0+128)
  2042  0E67  300A               	movlw	10
  2043  0E68  00A0               	movwf	___flge@ff1^(0+128)
  2044  0E69  0142               	movlb	2	; select bank2
  2045  0E6A  0833               	movf	(_extNTCV+3)^(0+256),w
  2046  0E6B  0141               	movlb	1	; select bank1
  2047  0E6C  00A7               	movwf	(___flge@ff2+3)^(0+128)
  2048  0E6D  0142               	movlb	2	; select bank2
  2049  0E6E  0832               	movf	(_extNTCV+2)^(0+256),w
  2050  0E6F  0141               	movlb	1	; select bank1
  2051  0E70  00A6               	movwf	(___flge@ff2+2)^(0+128)
  2052  0E71  0142               	movlb	2	; select bank2
  2053  0E72  0831               	movf	(_extNTCV+1)^(0+256),w
  2054  0E73  0141               	movlb	1	; select bank1
  2055  0E74  00A5               	movwf	(___flge@ff2+1)^(0+128)
  2056  0E75  0142               	movlb	2	; select bank2
  2057  0E76  0830               	movf	_extNTCV^(0+256),w
  2058  0E77  0141               	movlb	1	; select bank1
  2059  0E78  00A4               	movwf	___flge@ff2^(0+128)
  2060  0E79  318B  238E  318D   	fcall	___flge
  2061  0E7C  1803               	btfsc	3,0
  2062  0E7D  0008               	return
  2063  0E7E  3002               	movlw	2
  2064  0E7F  0142               	movlb	2	; select bank2
  2065  0E80  0638               	xorwf	_errReason^(0+256),w
  2066  0E81  1D03               	btfss	3,2
  2067  0E82  0008               	return
  2068  0E83                     l2168:	
  2069                           
  2070                           ;main.c: 348:             currentStatus = Normal;
  2071  0E83  01C7               	clrf	_currentStatus^(0+256)
  2072                           
  2073                           ;main.c: 349:             errReason = NoErr;
  2074  0E84  01B8               	clrf	_errReason^(0+256)
  2075  0E85  0008               	return
  2076  0E86                     __end_of_temperatureCheck:	
  2077                           
  2078                           	psect	text7
  2079  06AF                     __ptext7:	
  2080 ;; *************** function _getNTCV *****************
  2081 ;; Defined at:
  2082 ;;		line 226 in file "main.c"
  2083 ;; Parameters:    Size  Location     Type
  2084 ;;  channel         2   66[BANK1 ] unsigned int 
  2085 ;; Auto vars:     Size  Location     Type
  2086 ;;  voltage         4    8[BANK2 ] float 
  2087 ;;  VDD             4    4[BANK2 ] float 
  2088 ;; Return value:  Size  Location     Type
  2089 ;;                  4   66[BANK1 ] float 
  2090 ;; Registers used:
  2091 ;;		wreg, status,2, status,0, pclath, cstack
  2092 ;; Tracked objects:
  2093 ;;		On entry : 0/0
  2094 ;;		On exit  : 0/0
  2095 ;;		Unchanged: 0/0
  2096 ;; Data sizes:     COMMON   BANK0   BANK1   BANK2   BANK3   BANK4   BANK5   BANK6
  2097 ;;      Params:         0       0       4       0       0       0       0       0
  2098 ;;      Locals:         0       0       0      12       0       0       0       0
  2099 ;;      Temps:          0       0       1       0       0       0       0       0
  2100 ;;      Totals:         0       0       5      12       0       0       0       0
  2101 ;;Total ram usage:       17 bytes
  2102 ;; Hardware stack levels used:    1
  2103 ;; Hardware stack levels required when called:    5
  2104 ;; This function calls:
  2105 ;;		___fldiv
  2106 ;;		___flmul
  2107 ;;		___xxtofl
  2108 ;; This function is called by:
  2109 ;;		_temperatureCheck
  2110 ;; This function uses a non-reentrant model
  2111 ;;
  2112                           
  2113                           
  2114                           ;psect for function _getNTCV
  2115  06AF                     _getNTCV:	
  2116                           
  2117                           ;main.c: 230:     float voltage = 0;
  2118                           
  2119                           ;incstack = 0
  2120                           ; Regs used in _getNTCV: [wreg+status,2+status,0+pclath+cstack]
  2121  06AF  3000               	movlw	0
  2122  06B0  0142               	movlb	2	; select bank2
  2123  06B1  00C4               	movwf	(getNTCV@voltage+3)^(0+256)
  2124  06B2  3000               	movlw	0
  2125  06B3  00C3               	movwf	(getNTCV@voltage+2)^(0+256)
  2126  06B4  3000               	movlw	0
  2127  06B5  00C2               	movwf	(getNTCV@voltage+1)^(0+256)
  2128  06B6  3000               	movlw	0
  2129  06B7  00C1               	movwf	getNTCV@voltage^(0+256)
  2130                           
  2131                           ;main.c: 232:     ADCON0bits.ADON = 1;
  2132  06B8  0141               	movlb	1	; select bank1
  2133  06B9  141D               	bsf	29,0	;volatile
  2134                           
  2135                           ;main.c: 236:         ADCON0bits.CHS = 0x3F;
  2136  06BA  30FC               	movlw	252
  2137  06BB  049D               	iorwf	29,f	;volatile
  2138                           
  2139                           ;main.c: 237:         _delay((unsigned long)((100)*(32000000/4000000.0)));
  2140  06BC  30A0               	movlw	160
  2141  06BD                     u3917:	
  2142  06BD  3200               	nop2
  2143  06BE  0B89               	decfsz	9,f
  2144  06BF  2EBD               	goto	u3917
  2145                           
  2146                           ;main.c: 238:         ADCON0bits.GO = 1;
  2147  06C0  0141               	movlb	1	; select bank1
  2148  06C1  149D               	bsf	29,1	;volatile
  2149  06C2                     l2092:	
  2150                           ;main.c: 239:         while(ADCON0bits.GOnDONE){
  2151                           
  2152                           
  2153                           ;main.c: 239:         while(ADCON0bits.GOnDONE){
  2154  06C2  0141               	movlb	1	; select bank1
  2155  06C3  1C9D               	btfss	29,1	;volatile
  2156  06C4  2ECA               	goto	l2094
  2157                           
  2158                           ;main.c: 240:             _delay((unsigned long)((8)*(32000000/4000000.0)));
  2159  06C5  3015               	movlw	21
  2160  06C6                     u3927:	
  2161  06C6  0B89               	decfsz	9,f
  2162  06C7  2EC6               	goto	u3927
  2163  06C8  0000               	nop
  2164  06C9  2EC2               	goto	l2092
  2165  06CA                     l2094:	
  2166                           
  2167                           ;main.c: 242:         VDD = ((float)1024/(float)ADRES)*DIA_Table.FVRA4X;
  2168  06CA  0142               	movlb	2	; select bank2
  2169  06CB  0828               	movf	(_DIA_Table^(0+256)+8),w
  2170  06CC  0141               	movlb	1	; select bank1
  2171  06CD  00A0               	movwf	___xxtofl@val^(0+128)
  2172  06CE  0142               	movlb	2	; select bank2
  2173  06CF  0829               	movf	((_DIA_Table+1)^(0+256)+8),w
  2174  06D0  0141               	movlb	1	; select bank1
  2175  06D1  00A1               	movwf	(___xxtofl@val^(0+128)+1)
  2176  06D2  01A2               	clrf	(___xxtofl@val^(0+128)+2)
  2177  06D3  01A3               	clrf	(___xxtofl@val^(0+128)+3)
  2178  06D4  3000               	movlw	0
  2179  06D5  318D  251F  3186   	fcall	___xxtofl
  2180  06D8  0141               	movlb	1	; select bank1
  2181  06D9  0823               	movf	(?___xxtofl+3)^(0+128),w
  2182  06DA  00CB               	movwf	(___flmul@b+3)^(0+128)
  2183  06DB  0822               	movf	(?___xxtofl+2)^(0+128),w
  2184  06DC  00CA               	movwf	(___flmul@b+2)^(0+128)
  2185  06DD  0821               	movf	(?___xxtofl+1)^(0+128),w
  2186  06DE  00C9               	movwf	(___flmul@b+1)^(0+128)
  2187  06DF  0820               	movf	?___xxtofl^(0+128),w
  2188  06E0  00C8               	movwf	___flmul@b^(0+128)
  2189  06E1  081B               	movf	27,w	;volatile
  2190  06E2  00A0               	movwf	___xxtofl@val^(0+128)
  2191  06E3  081C               	movf	28,w	;volatile
  2192  06E4  00A1               	movwf	(___xxtofl@val^(0+128)+1)
  2193  06E5  01A2               	clrf	(___xxtofl@val^(0+128)+2)
  2194  06E6  01A3               	clrf	(___xxtofl@val^(0+128)+3)
  2195  06E7  3000               	movlw	0
  2196  06E8  318D  251F  3186   	fcall	___xxtofl
  2197  06EB  0141               	movlb	1	; select bank1
  2198  06EC  0823               	movf	(?___xxtofl+3)^(0+128),w
  2199  06ED  00B1               	movwf	(___fldiv@a+3)^(0+128)
  2200  06EE  0822               	movf	(?___xxtofl+2)^(0+128),w
  2201  06EF  00B0               	movwf	(___fldiv@a+2)^(0+128)
  2202  06F0  0821               	movf	(?___xxtofl+1)^(0+128),w
  2203  06F1  00AF               	movwf	(___fldiv@a+1)^(0+128)
  2204  06F2  0820               	movf	?___xxtofl^(0+128),w
  2205  06F3  00AE               	movwf	___fldiv@a^(0+128)
  2206  06F4  3044               	movlw	68
  2207  06F5  00B5               	movwf	(___fldiv@b+3)^(0+128)
  2208  06F6  3080               	movlw	128
  2209  06F7  00B4               	movwf	(___fldiv@b+2)^(0+128)
  2210  06F8  3000               	movlw	0
  2211  06F9  00B3               	movwf	(___fldiv@b+1)^(0+128)
  2212  06FA  3000               	movlw	0
  2213  06FB  00B2               	movwf	___fldiv@b^(0+128)
  2214  06FC  3185  2535  3186   	fcall	___fldiv
  2215  06FF  0141               	movlb	1	; select bank1
  2216  0700  0831               	movf	(?___fldiv+3)^(0+128),w
  2217  0701  00CF               	movwf	(___flmul@a+3)^(0+128)
  2218  0702  0830               	movf	(?___fldiv+2)^(0+128),w
  2219  0703  00CE               	movwf	(___flmul@a+2)^(0+128)
  2220  0704  082F               	movf	(?___fldiv+1)^(0+128),w
  2221  0705  00CD               	movwf	(___flmul@a+1)^(0+128)
  2222  0706  082E               	movf	?___fldiv^(0+128),w
  2223  0707  00CC               	movwf	___flmul@a^(0+128)
  2224  0708  3180  20DD  3186   	fcall	___flmul
  2225  070B  0141               	movlb	1	; select bank1
  2226  070C  084B               	movf	(?___flmul+3)^(0+128),w
  2227  070D  0142               	movlb	2	; select bank2
  2228  070E  00C0               	movwf	(getNTCV@VDD+3)^(0+256)
  2229  070F  0141               	movlb	1	; select bank1
  2230  0710  084A               	movf	(?___flmul+2)^(0+128),w
  2231  0711  0142               	movlb	2	; select bank2
  2232  0712  00BF               	movwf	(getNTCV@VDD+2)^(0+256)
  2233  0713  0141               	movlb	1	; select bank1
  2234  0714  0849               	movf	(?___flmul+1)^(0+128),w
  2235  0715  0142               	movlb	2	; select bank2
  2236  0716  00BE               	movwf	(getNTCV@VDD+1)^(0+256)
  2237  0717  0141               	movlb	1	; select bank1
  2238  0718  0848               	movf	?___flmul^(0+128),w
  2239  0719  0142               	movlb	2	; select bank2
  2240  071A  00BD               	movwf	getNTCV@VDD^(0+256)
  2241                           
  2242                           ;main.c: 245:         ADCON0bits.CHS = channel;
  2243  071B  0141               	movlb	1	; select bank1
  2244  071C  0862               	movf	getNTCV@channel^(0+128),w
  2245  071D  00E6               	movwf	??_getNTCV^(0+128)
  2246  071E  0DE6               	rlf	??_getNTCV^(0+128),f
  2247  071F  0DE6               	rlf	??_getNTCV^(0+128),f
  2248  0720  081D               	movf	29,w	;volatile
  2249  0721  0666               	xorwf	??_getNTCV^(0+128),w
  2250  0722  3903               	andlw	-253
  2251  0723  0666               	xorwf	??_getNTCV^(0+128),w
  2252  0724  009D               	movwf	29	;volatile
  2253                           
  2254                           ;main.c: 247:         _delay((unsigned long)((100)*(32000000/4000000.0)));
  2255  0725  30A0               	movlw	160
  2256  0726                     u3937:	
  2257  0726  3200               	nop2
  2258  0727  0B89               	decfsz	9,f
  2259  0728  2F26               	goto	u3937
  2260                           
  2261                           ;main.c: 248:         ADCON0bits.GO = 1;
  2262  0729  0141               	movlb	1	; select bank1
  2263  072A  149D               	bsf	29,1	;volatile
  2264  072B                     l2104:	
  2265                           ;main.c: 249:         while(ADCON0bits.GOnDONE){
  2266                           
  2267                           
  2268                           ;main.c: 249:         while(ADCON0bits.GOnDONE){
  2269  072B  0141               	movlb	1	; select bank1
  2270  072C  1C9D               	btfss	29,1	;volatile
  2271  072D  2F33               	goto	l2106
  2272                           
  2273                           ;main.c: 250:             _delay((unsigned long)((8)*(32000000/4000000.0)));
  2274  072E  3015               	movlw	21
  2275  072F                     u3947:	
  2276  072F  0B89               	decfsz	9,f
  2277  0730  2F2F               	goto	u3947
  2278  0731  0000               	nop
  2279  0732  2F2B               	goto	l2104
  2280  0733                     l2106:	
  2281                           
  2282                           ;main.c: 252:         voltage = ((float)ADRES/(float)1023)*VDD*0.001;
  2283  0733  0142               	movlb	2	; select bank2
  2284  0734  0840               	movf	(getNTCV@VDD+3)^(0+256),w
  2285  0735  0141               	movlb	1	; select bank1
  2286  0736  00CB               	movwf	(___flmul@b+3)^(0+128)
  2287  0737  0142               	movlb	2	; select bank2
  2288  0738  083F               	movf	(getNTCV@VDD+2)^(0+256),w
  2289  0739  0141               	movlb	1	; select bank1
  2290  073A  00CA               	movwf	(___flmul@b+2)^(0+128)
  2291  073B  0142               	movlb	2	; select bank2
  2292  073C  083E               	movf	(getNTCV@VDD+1)^(0+256),w
  2293  073D  0141               	movlb	1	; select bank1
  2294  073E  00C9               	movwf	(___flmul@b+1)^(0+128)
  2295  073F  0142               	movlb	2	; select bank2
  2296  0740  083D               	movf	getNTCV@VDD^(0+256),w
  2297  0741  0141               	movlb	1	; select bank1
  2298  0742  00C8               	movwf	___flmul@b^(0+128)
  2299  0743  3044               	movlw	68
  2300  0744  00B1               	movwf	(___fldiv@a+3)^(0+128)
  2301  0745  307F               	movlw	127
  2302  0746  00B0               	movwf	(___fldiv@a+2)^(0+128)
  2303  0747  30C0               	movlw	192
  2304  0748  00AF               	movwf	(___fldiv@a+1)^(0+128)
  2305  0749  3000               	movlw	0
  2306  074A  00AE               	movwf	___fldiv@a^(0+128)
  2307  074B  081B               	movf	27,w	;volatile
  2308  074C  00A0               	movwf	___xxtofl@val^(0+128)
  2309  074D  081C               	movf	28,w	;volatile
  2310  074E  00A1               	movwf	(___xxtofl@val^(0+128)+1)
  2311  074F  01A2               	clrf	(___xxtofl@val^(0+128)+2)
  2312  0750  01A3               	clrf	(___xxtofl@val^(0+128)+3)
  2313  0751  3000               	movlw	0
  2314  0752  318D  251F  3186   	fcall	___xxtofl
  2315  0755  0141               	movlb	1	; select bank1
  2316  0756  0823               	movf	(?___xxtofl+3)^(0+128),w
  2317  0757  00B5               	movwf	(___fldiv@b+3)^(0+128)
  2318  0758  0822               	movf	(?___xxtofl+2)^(0+128),w
  2319  0759  00B4               	movwf	(___fldiv@b+2)^(0+128)
  2320  075A  0821               	movf	(?___xxtofl+1)^(0+128),w
  2321  075B  00B3               	movwf	(___fldiv@b+1)^(0+128)
  2322  075C  0820               	movf	?___xxtofl^(0+128),w
  2323  075D  00B2               	movwf	___fldiv@b^(0+128)
  2324  075E  3185  2535  3186   	fcall	___fldiv
  2325  0761  0141               	movlb	1	; select bank1
  2326  0762  0831               	movf	(?___fldiv+3)^(0+128),w
  2327  0763  00CF               	movwf	(___flmul@a+3)^(0+128)
  2328  0764  0830               	movf	(?___fldiv+2)^(0+128),w
  2329  0765  00CE               	movwf	(___flmul@a+2)^(0+128)
  2330  0766  082F               	movf	(?___fldiv+1)^(0+128),w
  2331  0767  00CD               	movwf	(___flmul@a+1)^(0+128)
  2332  0768  082E               	movf	?___fldiv^(0+128),w
  2333  0769  00CC               	movwf	___flmul@a^(0+128)
  2334  076A  3180  20DD  3186   	fcall	___flmul
  2335  076D  0141               	movlb	1	; select bank1
  2336  076E  084B               	movf	(?___flmul+3)^(0+128),w
  2337  076F  0142               	movlb	2	; select bank2
  2338  0770  00BC               	movwf	(_getNTCV$1082+3)^(0+256)
  2339  0771  0141               	movlb	1	; select bank1
  2340  0772  084A               	movf	(?___flmul+2)^(0+128),w
  2341  0773  0142               	movlb	2	; select bank2
  2342  0774  00BB               	movwf	(_getNTCV$1082+2)^(0+256)
  2343  0775  0141               	movlb	1	; select bank1
  2344  0776  0849               	movf	(?___flmul+1)^(0+128),w
  2345  0777  0142               	movlb	2	; select bank2
  2346  0778  00BA               	movwf	(_getNTCV$1082+1)^(0+256)
  2347  0779  0141               	movlb	1	; select bank1
  2348  077A  0848               	movf	?___flmul^(0+128),w
  2349  077B  0142               	movlb	2	; select bank2
  2350  077C  00B9               	movwf	_getNTCV$1082^(0+256)
  2351                           
  2352                           ;main.c: 252:         voltage = ((float)ADRES/(float)1023)*VDD*0.001;
  2353  077D  303A               	movlw	58
  2354  077E  0141               	movlb	1	; select bank1
  2355  077F  00CB               	movwf	(___flmul@b+3)^(0+128)
  2356  0780  3083               	movlw	131
  2357  0781  00CA               	movwf	(___flmul@b+2)^(0+128)
  2358  0782  3012               	movlw	18
  2359  0783  00C9               	movwf	(___flmul@b+1)^(0+128)
  2360  0784  306F               	movlw	111
  2361  0785  00C8               	movwf	___flmul@b^(0+128)
  2362  0786  0142               	movlb	2	; select bank2
  2363  0787  083C               	movf	(_getNTCV$1082+3)^(0+256),w
  2364  0788  0141               	movlb	1	; select bank1
  2365  0789  00CF               	movwf	(___flmul@a+3)^(0+128)
  2366  078A  0142               	movlb	2	; select bank2
  2367  078B  083B               	movf	(_getNTCV$1082+2)^(0+256),w
  2368  078C  0141               	movlb	1	; select bank1
  2369  078D  00CE               	movwf	(___flmul@a+2)^(0+128)
  2370  078E  0142               	movlb	2	; select bank2
  2371  078F  083A               	movf	(_getNTCV$1082+1)^(0+256),w
  2372  0790  0141               	movlb	1	; select bank1
  2373  0791  00CD               	movwf	(___flmul@a+1)^(0+128)
  2374  0792  0142               	movlb	2	; select bank2
  2375  0793  0839               	movf	_getNTCV$1082^(0+256),w
  2376  0794  0141               	movlb	1	; select bank1
  2377  0795  00CC               	movwf	___flmul@a^(0+128)
  2378  0796  3180  20DD         	fcall	___flmul
  2379  0798  0141               	movlb	1	; select bank1
  2380  0799  084B               	movf	(?___flmul+3)^(0+128),w
  2381  079A  0142               	movlb	2	; select bank2
  2382  079B  00C4               	movwf	(getNTCV@voltage+3)^(0+256)
  2383  079C  0141               	movlb	1	; select bank1
  2384  079D  084A               	movf	(?___flmul+2)^(0+128),w
  2385  079E  0142               	movlb	2	; select bank2
  2386  079F  00C3               	movwf	(getNTCV@voltage+2)^(0+256)
  2387  07A0  0141               	movlb	1	; select bank1
  2388  07A1  0849               	movf	(?___flmul+1)^(0+128),w
  2389  07A2  0142               	movlb	2	; select bank2
  2390  07A3  00C2               	movwf	(getNTCV@voltage+1)^(0+256)
  2391  07A4  0141               	movlb	1	; select bank1
  2392  07A5  0848               	movf	?___flmul^(0+128),w
  2393  07A6  0142               	movlb	2	; select bank2
  2394  07A7  00C1               	movwf	getNTCV@voltage^(0+256)
  2395                           
  2396                           ;main.c: 254:     return voltage;
  2397  07A8  0844               	movf	(getNTCV@voltage+3)^(0+256),w
  2398  07A9  0141               	movlb	1	; select bank1
  2399  07AA  00E5               	movwf	(?_getNTCV+3)^(0+128)
  2400  07AB  0142               	movlb	2	; select bank2
  2401  07AC  0843               	movf	(getNTCV@voltage+2)^(0+256),w
  2402  07AD  0141               	movlb	1	; select bank1
  2403  07AE  00E4               	movwf	(?_getNTCV+2)^(0+128)
  2404  07AF  0142               	movlb	2	; select bank2
  2405  07B0  0842               	movf	(getNTCV@voltage+1)^(0+256),w
  2406  07B1  0141               	movlb	1	; select bank1
  2407  07B2  00E3               	movwf	(?_getNTCV+1)^(0+128)
  2408  07B3  0142               	movlb	2	; select bank2
  2409  07B4  0841               	movf	getNTCV@voltage^(0+256),w
  2410  07B5  0141               	movlb	1	; select bank1
  2411  07B6  00E2               	movwf	?_getNTCV^(0+128)
  2412  07B7  0008               	return
  2413  07B8                     __end_of_getNTCV:	
  2414                           
  2415                           	psect	text8
  2416  0D1F                     __ptext8:	
  2417 ;; *************** function ___xxtofl *****************
  2418 ;; Defined at:
  2419 ;;		line 10 in file "C:\Program Files (x86)\Microchip\xc8\v2.05\pic\sources\c99\common\xxtofl.c"
  2420 ;; Parameters:    Size  Location     Type
  2421 ;;  sign            1    wreg     unsigned char 
  2422 ;;  val             4    0[BANK1 ] long 
  2423 ;; Auto vars:     Size  Location     Type
  2424 ;;  sign            1    8[BANK1 ] unsigned char 
  2425 ;;  arg             4   10[BANK1 ] unsigned long 
  2426 ;;  exp             1    9[BANK1 ] unsigned char 
  2427 ;; Return value:  Size  Location     Type
  2428 ;;                  4    0[BANK1 ] unsigned char 
  2429 ;; Registers used:
  2430 ;;		wreg, status,2, status,0
  2431 ;; Tracked objects:
  2432 ;;		On entry : 0/0
  2433 ;;		On exit  : 0/0
  2434 ;;		Unchanged: 0/0
  2435 ;; Data sizes:     COMMON   BANK0   BANK1   BANK2   BANK3   BANK4   BANK5   BANK6
  2436 ;;      Params:         0       0       4       0       0       0       0       0
  2437 ;;      Locals:         0       0       6       0       0       0       0       0
  2438 ;;      Temps:          0       0       4       0       0       0       0       0
  2439 ;;      Totals:         0       0      14       0       0       0       0       0
  2440 ;;Total ram usage:       14 bytes
  2441 ;; Hardware stack levels used:    1
  2442 ;; Hardware stack levels required when called:    3
  2443 ;; This function calls:
  2444 ;;		Nothing
  2445 ;; This function is called by:
  2446 ;;		_getNTCV
  2447 ;; This function uses a non-reentrant model
  2448 ;;
  2449                           
  2450                           
  2451                           ;psect for function ___xxtofl
  2452  0D1F                     ___xxtofl:	
  2453                           
  2454                           ;incstack = 0
  2455                           ; Regs used in ___xxtofl: [wreg+status,2+status,0]
  2456                           ;___xxtofl@sign stored from wreg
  2457  0D1F  0141               	movlb	1	; select bank1
  2458  0D20  00A8               	movwf	___xxtofl@sign^(0+128)
  2459  0D21  0828               	movf	___xxtofl@sign^(0+128),w
  2460  0D22  1D03               	btfss	3,2
  2461  0D23  1FA3               	btfss	(___xxtofl@val+3)^(0+128),7
  2462  0D24  2D35               	goto	l2028
  2463  0D25  0920               	comf	___xxtofl@val^(0+128),w
  2464  0D26  00AA               	movwf	___xxtofl@arg^(0+128)
  2465  0D27  0921               	comf	(___xxtofl@val^(0+128)+1),w
  2466  0D28  00AB               	movwf	(___xxtofl@arg+1)^(0+128)
  2467  0D29  0922               	comf	(___xxtofl@val^(0+128)+2),w
  2468  0D2A  00AC               	movwf	(___xxtofl@arg+2)^(0+128)
  2469  0D2B  0923               	comf	(___xxtofl@val^(0+128)+3),w
  2470  0D2C  00AD               	movwf	(___xxtofl@arg+3)^(0+128)
  2471  0D2D  0AAA               	incf	___xxtofl@arg^(0+128),f
  2472  0D2E  1903               	skipnz
  2473  0D2F  0AAB               	incf	(___xxtofl@arg+1)^(0+128),f
  2474  0D30  1903               	skipnz
  2475  0D31  0AAC               	incf	(___xxtofl@arg+2)^(0+128),f
  2476  0D32  1903               	skipnz
  2477  0D33  0AAD               	incf	(___xxtofl@arg+3)^(0+128),f
  2478  0D34  2D3D               	goto	l687
  2479  0D35                     l2028:	
  2480  0D35  0823               	movf	(___xxtofl@val+3)^(0+128),w
  2481  0D36  00AD               	movwf	(___xxtofl@arg+3)^(0+128)
  2482  0D37  0822               	movf	(___xxtofl@val+2)^(0+128),w
  2483  0D38  00AC               	movwf	(___xxtofl@arg+2)^(0+128)
  2484  0D39  0821               	movf	(___xxtofl@val+1)^(0+128),w
  2485  0D3A  00AB               	movwf	(___xxtofl@arg+1)^(0+128)
  2486  0D3B  0820               	movf	___xxtofl@val^(0+128),w
  2487  0D3C  00AA               	movwf	___xxtofl@arg^(0+128)
  2488  0D3D                     l687:	
  2489  0D3D  0823               	movf	(___xxtofl@val+3)^(0+128),w
  2490  0D3E  0422               	iorwf	(___xxtofl@val+2)^(0+128),w
  2491  0D3F  0421               	iorwf	(___xxtofl@val+1)^(0+128),w
  2492  0D40  0420               	iorwf	___xxtofl@val^(0+128),w
  2493  0D41  1D03               	skipz
  2494  0D42  2D4C               	goto	l2034
  2495  0D43  3000               	movlw	0
  2496  0D44  00A3               	movwf	(?___xxtofl+3)^(0+128)
  2497  0D45  3000               	movlw	0
  2498  0D46  00A2               	movwf	(?___xxtofl+2)^(0+128)
  2499  0D47  3000               	movlw	0
  2500  0D48  00A1               	movwf	(?___xxtofl+1)^(0+128)
  2501  0D49  3000               	movlw	0
  2502  0D4A  00A0               	movwf	?___xxtofl^(0+128)
  2503  0D4B  0008               	return
  2504  0D4C                     l2034:	
  2505  0D4C  3096               	movlw	150
  2506  0D4D  00A4               	movwf	??___xxtofl^(0+128)
  2507  0D4E  0824               	movf	??___xxtofl^(0+128),w
  2508  0D4F  00A9               	movwf	___xxtofl@exp^(0+128)
  2509  0D50                     l2038:	
  2510  0D50  30FE               	movlw	254
  2511  0D51  052D               	andwf	(___xxtofl@arg+3)^(0+128),w
  2512  0D52  1903               	btfsc	3,2
  2513  0D53  2D73               	goto	l693
  2514  0D54  3001               	movlw	1
  2515  0D55  00A4               	movwf	??___xxtofl^(0+128)
  2516  0D56  0824               	movf	??___xxtofl^(0+128),w
  2517  0D57  07A9               	addwf	___xxtofl@exp^(0+128),f
  2518  0D58  3001               	movlw	1
  2519  0D59                     u2565:	
  2520  0D59  36AD               	lsrf	(___xxtofl@arg+3)^(0+128),f
  2521  0D5A  0CAC               	rrf	(___xxtofl@arg+2)^(0+128),f
  2522  0D5B  0CAB               	rrf	(___xxtofl@arg+1)^(0+128),f
  2523  0D5C  0CAA               	rrf	___xxtofl@arg^(0+128),f
  2524  0D5D  0B89               	decfsz	9,f
  2525  0D5E  2D59               	goto	u2565
  2526  0D5F  2D50               	goto	l2038
  2527  0D60                     l2040:	
  2528  0D60  3001               	movlw	1
  2529  0D61  00A4               	movwf	??___xxtofl^(0+128)
  2530  0D62  0824               	movf	??___xxtofl^(0+128),w
  2531  0D63  07A9               	addwf	___xxtofl@exp^(0+128),f
  2532  0D64  3001               	movlw	1
  2533  0D65  07AA               	addwf	___xxtofl@arg^(0+128),f
  2534  0D66  3000               	movlw	0
  2535  0D67  3DAB               	addwfc	(___xxtofl@arg+1)^(0+128),f
  2536  0D68  3000               	movlw	0
  2537  0D69  3DAC               	addwfc	(___xxtofl@arg+2)^(0+128),f
  2538  0D6A  3000               	movlw	0
  2539  0D6B  3DAD               	addwfc	(___xxtofl@arg+3)^(0+128),f
  2540  0D6C  3001               	movlw	1
  2541  0D6D                     u2585:	
  2542  0D6D  36AD               	lsrf	(___xxtofl@arg+3)^(0+128),f
  2543  0D6E  0CAC               	rrf	(___xxtofl@arg+2)^(0+128),f
  2544  0D6F  0CAB               	rrf	(___xxtofl@arg+1)^(0+128),f
  2545  0D70  0CAA               	rrf	___xxtofl@arg^(0+128),f
  2546  0D71  0B89               	decfsz	9,f
  2547  0D72  2D6D               	goto	u2585
  2548  0D73                     l693:	
  2549  0D73  30FF               	movlw	255
  2550  0D74  052D               	andwf	(___xxtofl@arg+3)^(0+128),w
  2551  0D75  1903               	btfsc	3,2
  2552  0D76  2D85               	goto	l2048
  2553  0D77  2D60               	goto	l2040
  2554  0D78                     l2050:	
  2555  0D78  3002               	movlw	2
  2556  0D79  0229               	subwf	___xxtofl@exp^(0+128),w
  2557  0D7A  1C03               	btfss	3,0
  2558  0D7B  2D87               	goto	l700
  2559  0D7C  3001               	movlw	1
  2560  0D7D  02A9               	subwf	___xxtofl@exp^(0+128),f
  2561  0D7E  3001               	movlw	1
  2562  0D7F                     u2605:	
  2563  0D7F  35AA               	lslf	___xxtofl@arg^(0+128),f
  2564  0D80  0DAB               	rlf	(___xxtofl@arg+1)^(0+128),f
  2565  0D81  0DAC               	rlf	(___xxtofl@arg+2)^(0+128),f
  2566  0D82  0DAD               	rlf	(___xxtofl@arg+3)^(0+128),f
  2567  0D83  0B89               	decfsz	9,f
  2568  0D84  2D7F               	goto	u2605
  2569  0D85                     l2048:	
  2570  0D85  1FAC               	btfss	(___xxtofl@arg+2)^(0+128),7
  2571  0D86  2D78               	goto	l2050
  2572  0D87                     l700:	
  2573  0D87  1829               	btfsc	___xxtofl@exp^(0+128),0
  2574  0D88  2D91               	goto	l701
  2575  0D89  30FF               	movlw	255
  2576  0D8A  05AA               	andwf	___xxtofl@arg^(0+128),f
  2577  0D8B  30FF               	movlw	255
  2578  0D8C  05AB               	andwf	(___xxtofl@arg+1)^(0+128),f
  2579  0D8D  307F               	movlw	127
  2580  0D8E  05AC               	andwf	(___xxtofl@arg+2)^(0+128),f
  2581  0D8F  30FF               	movlw	255
  2582  0D90  05AD               	andwf	(___xxtofl@arg+3)^(0+128),f
  2583  0D91                     l701:	
  2584  0D91  1003               	clrc
  2585  0D92  0CA9               	rrf	___xxtofl@exp^(0+128),f
  2586  0D93  0829               	movf	___xxtofl@exp^(0+128),w
  2587  0D94  00A4               	movwf	??___xxtofl^(0+128)
  2588  0D95  01A5               	clrf	(??___xxtofl^(0+128)+1)
  2589  0D96  01A6               	clrf	(??___xxtofl^(0+128)+2)
  2590  0D97  01A7               	clrf	(??___xxtofl^(0+128)+3)
  2591  0D98  3018               	movlw	24
  2592  0D99                     u2645:	
  2593  0D99  35A4               	lslf	??___xxtofl^(0+128),f
  2594  0D9A  0DA5               	rlf	(??___xxtofl^(0+128)+1),f
  2595  0D9B  0DA6               	rlf	(??___xxtofl^(0+128)+2),f
  2596  0D9C  0DA7               	rlf	(??___xxtofl^(0+128)+3),f
  2597  0D9D  0B89               	decfsz	9,f
  2598  0D9E  2D99               	goto	u2645
  2599  0D9F  0824               	movf	??___xxtofl^(0+128),w
  2600  0DA0  04AA               	iorwf	___xxtofl@arg^(0+128),f
  2601  0DA1  0825               	movf	(??___xxtofl+1)^(0+128),w
  2602  0DA2  04AB               	iorwf	(___xxtofl@arg+1)^(0+128),f
  2603  0DA3  0826               	movf	(??___xxtofl+2)^(0+128),w
  2604  0DA4  04AC               	iorwf	(___xxtofl@arg+2)^(0+128),f
  2605  0DA5  0827               	movf	(??___xxtofl+3)^(0+128),w
  2606  0DA6  04AD               	iorwf	(___xxtofl@arg+3)^(0+128),f
  2607  0DA7  0828               	movf	___xxtofl@sign^(0+128),w
  2608  0DA8  1D03               	btfss	3,2
  2609  0DA9  1FA3               	btfss	(___xxtofl@val+3)^(0+128),7
  2610  0DAA  2DAC               	goto	l2062
  2611  0DAB  17AD               	bsf	(___xxtofl@arg^(0+128)+3),7
  2612  0DAC                     l2062:	
  2613  0DAC  082D               	movf	(___xxtofl@arg+3)^(0+128),w
  2614  0DAD  00A3               	movwf	(?___xxtofl+3)^(0+128)
  2615  0DAE  082C               	movf	(___xxtofl@arg+2)^(0+128),w
  2616  0DAF  00A2               	movwf	(?___xxtofl+2)^(0+128)
  2617  0DB0  082B               	movf	(___xxtofl@arg+1)^(0+128),w
  2618  0DB1  00A1               	movwf	(?___xxtofl+1)^(0+128)
  2619  0DB2  082A               	movf	___xxtofl@arg^(0+128),w
  2620  0DB3  00A0               	movwf	?___xxtofl^(0+128)
  2621  0DB4  0008               	return
  2622  0DB5                     __end_of___xxtofl:	
  2623                           
  2624                           	psect	text9
  2625  00DD                     __ptext9:	
  2626 ;; *************** function ___flmul *****************
  2627 ;; Defined at:
  2628 ;;		line 8 in file "C:\Program Files (x86)\Microchip\xc8\v2.05\pic\sources\c99\common\sprcmul.c"
  2629 ;; Parameters:    Size  Location     Type
  2630 ;;  b               4   40[BANK1 ] unsigned char 
  2631 ;;  a               4   44[BANK1 ] unsigned char 
  2632 ;; Auto vars:     Size  Location     Type
  2633 ;;  prod            4   60[BANK1 ] struct .
  2634 ;;  grs             4   54[BANK1 ] unsigned long 
  2635 ;;  temp            2   64[BANK1 ] struct .
  2636 ;;  bexp            1   59[BANK1 ] unsigned char 
  2637 ;;  aexp            1   58[BANK1 ] unsigned char 
  2638 ;;  sign            1   53[BANK1 ] unsigned char 
  2639 ;; Return value:  Size  Location     Type
  2640 ;;                  4   40[BANK1 ] unsigned char 
  2641 ;; Registers used:
  2642 ;;		wreg, status,2, status,0, pclath, cstack
  2643 ;; Tracked objects:
  2644 ;;		On entry : 0/0
  2645 ;;		On exit  : 0/0
  2646 ;;		Unchanged: 0/0
  2647 ;; Data sizes:     COMMON   BANK0   BANK1   BANK2   BANK3   BANK4   BANK5   BANK6
  2648 ;;      Params:         0       0       8       0       0       0       0       0
  2649 ;;      Locals:         0       0      13       0       0       0       0       0
  2650 ;;      Temps:          0       0       5       0       0       0       0       0
  2651 ;;      Totals:         0       0      26       0       0       0       0       0
  2652 ;;Total ram usage:       26 bytes
  2653 ;; Hardware stack levels used:    1
  2654 ;; Hardware stack levels required when called:    4
  2655 ;; This function calls:
  2656 ;;		__Umul8_16
  2657 ;; This function is called by:
  2658 ;;		_getNTCV
  2659 ;; This function uses a non-reentrant model
  2660 ;;
  2661                           
  2662                           
  2663                           ;psect for function ___flmul
  2664  00DD                     ___flmul:	
  2665                           
  2666                           ;incstack = 0
  2667                           ; Regs used in ___flmul: [wreg+status,2+status,0+pclath+cstack]
  2668  00DD  0141               	movlb	1	; select bank1
  2669  00DE  084B               	movf	(___flmul@b^(0+128)+3),w
  2670  00DF  3980               	andlw	128
  2671  00E0  00D0               	movwf	??___flmul^(0+128)
  2672  00E1  0850               	movf	??___flmul^(0+128),w
  2673  00E2  00D5               	movwf	___flmul@sign^(0+128)
  2674  00E3  354B               	lslf	(___flmul@b^(0+128)+3),w
  2675  00E4  00D0               	movwf	??___flmul^(0+128)
  2676  00E5  0850               	movf	??___flmul^(0+128),w
  2677  00E6  00DB               	movwf	___flmul@bexp^(0+128)
  2678  00E7  1BCA               	btfsc	(___flmul@b^(0+128)+2),7
  2679  00E8  145B               	bsf	___flmul@bexp^(0+128),0
  2680  00E9  085B               	movf	___flmul@bexp^(0+128),w
  2681  00EA  1903               	btfsc	3,2
  2682  00EB  28F9               	goto	l1898
  2683  00EC  0A5B               	incf	___flmul@bexp^(0+128),w
  2684  00ED  1D03               	btfss	3,2
  2685  00EE  28F7               	goto	l1896
  2686  00EF  3000               	movlw	0
  2687  00F0  00CB               	movwf	(___flmul@b+3)^(0+128)
  2688  00F1  3000               	movlw	0
  2689  00F2  00CA               	movwf	(___flmul@b+2)^(0+128)
  2690  00F3  3000               	movlw	0
  2691  00F4  00C9               	movwf	(___flmul@b+1)^(0+128)
  2692  00F5  3000               	movlw	0
  2693  00F6  00C8               	movwf	___flmul@b^(0+128)
  2694  00F7                     l1896:	
  2695  00F7  17CA               	bsf	(___flmul@b^(0+128)+2),7
  2696  00F8  2901               	goto	l1900
  2697  00F9                     l1898:	
  2698  00F9  3000               	movlw	0
  2699  00FA  00CB               	movwf	(___flmul@b+3)^(0+128)
  2700  00FB  3000               	movlw	0
  2701  00FC  00CA               	movwf	(___flmul@b+2)^(0+128)
  2702  00FD  3000               	movlw	0
  2703  00FE  00C9               	movwf	(___flmul@b+1)^(0+128)
  2704  00FF  3000               	movlw	0
  2705  0100  00C8               	movwf	___flmul@b^(0+128)
  2706  0101                     l1900:	
  2707  0101  084F               	movf	(___flmul@a^(0+128)+3),w
  2708  0102  3980               	andlw	128
  2709  0103  00D0               	movwf	??___flmul^(0+128)
  2710  0104  0850               	movf	??___flmul^(0+128),w
  2711  0105  06D5               	xorwf	___flmul@sign^(0+128),f
  2712  0106  354F               	lslf	(___flmul@a^(0+128)+3),w
  2713  0107  00D0               	movwf	??___flmul^(0+128)
  2714  0108  0850               	movf	??___flmul^(0+128),w
  2715  0109  00DA               	movwf	___flmul@aexp^(0+128)
  2716  010A  1BCE               	btfsc	(___flmul@a^(0+128)+2),7
  2717  010B  145A               	bsf	___flmul@aexp^(0+128),0
  2718  010C  085A               	movf	___flmul@aexp^(0+128),w
  2719  010D  1903               	btfsc	3,2
  2720  010E  291C               	goto	l1916
  2721  010F  0A5A               	incf	___flmul@aexp^(0+128),w
  2722  0110  1D03               	btfss	3,2
  2723  0111  291A               	goto	l1914
  2724  0112  3000               	movlw	0
  2725  0113  00CF               	movwf	(___flmul@a+3)^(0+128)
  2726  0114  3000               	movlw	0
  2727  0115  00CE               	movwf	(___flmul@a+2)^(0+128)
  2728  0116  3000               	movlw	0
  2729  0117  00CD               	movwf	(___flmul@a+1)^(0+128)
  2730  0118  3000               	movlw	0
  2731  0119  00CC               	movwf	___flmul@a^(0+128)
  2732  011A                     l1914:	
  2733  011A  17CE               	bsf	(___flmul@a^(0+128)+2),7
  2734  011B  2924               	goto	l1918
  2735  011C                     l1916:	
  2736  011C  3000               	movlw	0
  2737  011D  00CF               	movwf	(___flmul@a+3)^(0+128)
  2738  011E  3000               	movlw	0
  2739  011F  00CE               	movwf	(___flmul@a+2)^(0+128)
  2740  0120  3000               	movlw	0
  2741  0121  00CD               	movwf	(___flmul@a+1)^(0+128)
  2742  0122  3000               	movlw	0
  2743  0123  00CC               	movwf	___flmul@a^(0+128)
  2744  0124                     l1918:	
  2745  0124  085A               	movf	___flmul@aexp^(0+128),w
  2746  0125  1D03               	btfss	3,2
  2747  0126  085B               	movf	___flmul@bexp^(0+128),w
  2748  0127  1D03               	btfss	3,2
  2749  0128  2932               	goto	l1926
  2750  0129  3000               	movlw	0
  2751  012A  00CB               	movwf	(?___flmul+3)^(0+128)
  2752  012B  3000               	movlw	0
  2753  012C  00CA               	movwf	(?___flmul+2)^(0+128)
  2754  012D  3000               	movlw	0
  2755  012E  00C9               	movwf	(?___flmul+1)^(0+128)
  2756  012F  3000               	movlw	0
  2757  0130  00C8               	movwf	?___flmul^(0+128)
  2758  0131  0008               	return
  2759  0132                     l1926:	
  2760  0132  0848               	movf	___flmul@b^(0+128),w
  2761  0133  00D0               	movwf	??___flmul^(0+128)
  2762  0134  0850               	movf	??___flmul^(0+128),w
  2763  0135  00A0               	movwf	__Umul8_16@multiplicand^(0+128)
  2764  0136  084E               	movf	(___flmul@a^(0+128)+2),w
  2765  0137  3189  21C3  3180   	fcall	__Umul8_16
  2766  013A  0141               	movlb	1	; select bank1
  2767  013B  0821               	movf	(?__Umul8_16+1)^(0+128),w
  2768  013C  00E1               	movwf	(___flmul@temp+1)^(0+128)
  2769  013D  0820               	movf	?__Umul8_16^(0+128),w
  2770  013E  00E0               	movwf	___flmul@temp^(0+128)
  2771  013F  0860               	movf	___flmul@temp^(0+128),w
  2772  0140  00D0               	movwf	??___flmul^(0+128)
  2773  0141  01D1               	clrf	(??___flmul^(0+128)+1)
  2774  0142  01D2               	clrf	(??___flmul^(0+128)+2)
  2775  0143  01D3               	clrf	(??___flmul^(0+128)+3)
  2776  0144  0853               	movf	(??___flmul+3)^(0+128),w
  2777  0145  00D9               	movwf	(___flmul@grs+3)^(0+128)
  2778  0146  0852               	movf	(??___flmul+2)^(0+128),w
  2779  0147  00D8               	movwf	(___flmul@grs+2)^(0+128)
  2780  0148  0851               	movf	(??___flmul+1)^(0+128),w
  2781  0149  00D7               	movwf	(___flmul@grs+1)^(0+128)
  2782  014A  0850               	movf	??___flmul^(0+128),w
  2783  014B  00D6               	movwf	___flmul@grs^(0+128)
  2784  014C  0861               	movf	(___flmul@temp^(0+128)+1),w
  2785  014D  00D0               	movwf	??___flmul^(0+128)
  2786  014E  01D1               	clrf	(??___flmul^(0+128)+1)
  2787  014F  01D2               	clrf	(??___flmul^(0+128)+2)
  2788  0150  01D3               	clrf	(??___flmul^(0+128)+3)
  2789  0151  0853               	movf	(??___flmul+3)^(0+128),w
  2790  0152  00DF               	movwf	(___flmul@prod+3)^(0+128)
  2791  0153  0852               	movf	(??___flmul+2)^(0+128),w
  2792  0154  00DE               	movwf	(___flmul@prod+2)^(0+128)
  2793  0155  0851               	movf	(??___flmul+1)^(0+128),w
  2794  0156  00DD               	movwf	(___flmul@prod+1)^(0+128)
  2795  0157  0850               	movf	??___flmul^(0+128),w
  2796  0158  00DC               	movwf	___flmul@prod^(0+128)
  2797  0159  0849               	movf	(___flmul@b^(0+128)+1),w
  2798  015A  00D0               	movwf	??___flmul^(0+128)
  2799  015B  0850               	movf	??___flmul^(0+128),w
  2800  015C  00A0               	movwf	__Umul8_16@multiplicand^(0+128)
  2801  015D  084D               	movf	(___flmul@a^(0+128)+1),w
  2802  015E  3189  21C3  3180   	fcall	__Umul8_16
  2803  0161  0141               	movlb	1	; select bank1
  2804  0162  0821               	movf	(?__Umul8_16+1)^(0+128),w
  2805  0163  00E1               	movwf	(___flmul@temp+1)^(0+128)
  2806  0164  0820               	movf	?__Umul8_16^(0+128),w
  2807  0165  00E0               	movwf	___flmul@temp^(0+128)
  2808  0166  0860               	movf	___flmul@temp^(0+128),w
  2809  0167  00D0               	movwf	??___flmul^(0+128)
  2810  0168  01D1               	clrf	(??___flmul^(0+128)+1)
  2811  0169  01D2               	clrf	(??___flmul^(0+128)+2)
  2812  016A  01D3               	clrf	(??___flmul^(0+128)+3)
  2813  016B  0850               	movf	??___flmul^(0+128),w
  2814  016C  07D6               	addwf	___flmul@grs^(0+128),f
  2815  016D  0851               	movf	(??___flmul+1)^(0+128),w
  2816  016E  3DD7               	addwfc	(___flmul@grs+1)^(0+128),f
  2817  016F  0852               	movf	(??___flmul+2)^(0+128),w
  2818  0170  3DD8               	addwfc	(___flmul@grs+2)^(0+128),f
  2819  0171  0853               	movf	(??___flmul+3)^(0+128),w
  2820  0172  3DD9               	addwfc	(___flmul@grs+3)^(0+128),f
  2821  0173  0861               	movf	(___flmul@temp^(0+128)+1),w
  2822  0174  00D0               	movwf	??___flmul^(0+128)
  2823  0175  01D1               	clrf	(??___flmul^(0+128)+1)
  2824  0176  01D2               	clrf	(??___flmul^(0+128)+2)
  2825  0177  01D3               	clrf	(??___flmul^(0+128)+3)
  2826  0178  0850               	movf	??___flmul^(0+128),w
  2827  0179  07DC               	addwf	___flmul@prod^(0+128),f
  2828  017A  0851               	movf	(??___flmul+1)^(0+128),w
  2829  017B  3DDD               	addwfc	(___flmul@prod+1)^(0+128),f
  2830  017C  0852               	movf	(??___flmul+2)^(0+128),w
  2831  017D  3DDE               	addwfc	(___flmul@prod+2)^(0+128),f
  2832  017E  0853               	movf	(??___flmul+3)^(0+128),w
  2833  017F  3DDF               	addwfc	(___flmul@prod+3)^(0+128),f
  2834  0180  084A               	movf	(___flmul@b^(0+128)+2),w
  2835  0181  00D0               	movwf	??___flmul^(0+128)
  2836  0182  0850               	movf	??___flmul^(0+128),w
  2837  0183  00A0               	movwf	__Umul8_16@multiplicand^(0+128)
  2838  0184  084C               	movf	___flmul@a^(0+128),w
  2839  0185  3189  21C3  3180   	fcall	__Umul8_16
  2840  0188  0141               	movlb	1	; select bank1
  2841  0189  0821               	movf	(?__Umul8_16+1)^(0+128),w
  2842  018A  00E1               	movwf	(___flmul@temp+1)^(0+128)
  2843  018B  0820               	movf	?__Umul8_16^(0+128),w
  2844  018C  00E0               	movwf	___flmul@temp^(0+128)
  2845  018D  0860               	movf	___flmul@temp^(0+128),w
  2846  018E  00D0               	movwf	??___flmul^(0+128)
  2847  018F  01D1               	clrf	(??___flmul^(0+128)+1)
  2848  0190  01D2               	clrf	(??___flmul^(0+128)+2)
  2849  0191  01D3               	clrf	(??___flmul^(0+128)+3)
  2850  0192  0850               	movf	??___flmul^(0+128),w
  2851  0193  07D6               	addwf	___flmul@grs^(0+128),f
  2852  0194  0851               	movf	(??___flmul+1)^(0+128),w
  2853  0195  3DD7               	addwfc	(___flmul@grs+1)^(0+128),f
  2854  0196  0852               	movf	(??___flmul+2)^(0+128),w
  2855  0197  3DD8               	addwfc	(___flmul@grs+2)^(0+128),f
  2856  0198  0853               	movf	(??___flmul+3)^(0+128),w
  2857  0199  3DD9               	addwfc	(___flmul@grs+3)^(0+128),f
  2858  019A  0861               	movf	(___flmul@temp^(0+128)+1),w
  2859  019B  00D0               	movwf	??___flmul^(0+128)
  2860  019C  01D1               	clrf	(??___flmul^(0+128)+1)
  2861  019D  01D2               	clrf	(??___flmul^(0+128)+2)
  2862  019E  01D3               	clrf	(??___flmul^(0+128)+3)
  2863  019F  0850               	movf	??___flmul^(0+128),w
  2864  01A0  07DC               	addwf	___flmul@prod^(0+128),f
  2865  01A1  0851               	movf	(??___flmul+1)^(0+128),w
  2866  01A2  3DDD               	addwfc	(___flmul@prod+1)^(0+128),f
  2867  01A3  0852               	movf	(??___flmul+2)^(0+128),w
  2868  01A4  3DDE               	addwfc	(___flmul@prod+2)^(0+128),f
  2869  01A5  0853               	movf	(??___flmul+3)^(0+128),w
  2870  01A6  3DDF               	addwfc	(___flmul@prod+3)^(0+128),f
  2871  01A7  3008               	movlw	8
  2872  01A8                     u2355:	
  2873  01A8  35D6               	lslf	___flmul@grs^(0+128),f
  2874  01A9  0DD7               	rlf	(___flmul@grs+1)^(0+128),f
  2875  01AA  0DD8               	rlf	(___flmul@grs+2)^(0+128),f
  2876  01AB  0DD9               	rlf	(___flmul@grs+3)^(0+128),f
  2877  01AC  0B89               	decfsz	9,f
  2878  01AD  29A8               	goto	u2355
  2879  01AE  0849               	movf	(___flmul@b^(0+128)+1),w
  2880  01AF  00D0               	movwf	??___flmul^(0+128)
  2881  01B0  0850               	movf	??___flmul^(0+128),w
  2882  01B1  00A0               	movwf	__Umul8_16@multiplicand^(0+128)
  2883  01B2  084C               	movf	___flmul@a^(0+128),w
  2884  01B3  3189  21C3  3180   	fcall	__Umul8_16
  2885  01B6  0141               	movlb	1	; select bank1
  2886  01B7  0821               	movf	(?__Umul8_16+1)^(0+128),w
  2887  01B8  00E1               	movwf	(___flmul@temp+1)^(0+128)
  2888  01B9  0820               	movf	?__Umul8_16^(0+128),w
  2889  01BA  00E0               	movwf	___flmul@temp^(0+128)
  2890  01BB  0860               	movf	___flmul@temp^(0+128),w
  2891  01BC  07D6               	addwf	___flmul@grs^(0+128),f
  2892  01BD  0861               	movf	(___flmul@temp+1)^(0+128),w
  2893  01BE  3DD7               	addwfc	(___flmul@grs+1)^(0+128),f
  2894  01BF  3000               	movlw	0
  2895  01C0  3DD8               	addwfc	(___flmul@grs+2)^(0+128),f
  2896  01C1  3DD9               	addwfc	(___flmul@grs+3)^(0+128),f
  2897  01C2  0848               	movf	___flmul@b^(0+128),w
  2898  01C3  00D0               	movwf	??___flmul^(0+128)
  2899  01C4  0850               	movf	??___flmul^(0+128),w
  2900  01C5  00A0               	movwf	__Umul8_16@multiplicand^(0+128)
  2901  01C6  084D               	movf	(___flmul@a^(0+128)+1),w
  2902  01C7  3189  21C3  3180   	fcall	__Umul8_16
  2903  01CA  0141               	movlb	1	; select bank1
  2904  01CB  0821               	movf	(?__Umul8_16+1)^(0+128),w
  2905  01CC  00E1               	movwf	(___flmul@temp+1)^(0+128)
  2906  01CD  0820               	movf	?__Umul8_16^(0+128),w
  2907  01CE  00E0               	movwf	___flmul@temp^(0+128)
  2908  01CF  0860               	movf	___flmul@temp^(0+128),w
  2909  01D0  07D6               	addwf	___flmul@grs^(0+128),f
  2910  01D1  0861               	movf	(___flmul@temp+1)^(0+128),w
  2911  01D2  3DD7               	addwfc	(___flmul@grs+1)^(0+128),f
  2912  01D3  3000               	movlw	0
  2913  01D4  3DD8               	addwfc	(___flmul@grs+2)^(0+128),f
  2914  01D5  3DD9               	addwfc	(___flmul@grs+3)^(0+128),f
  2915  01D6  3008               	movlw	8
  2916  01D7                     u2365:	
  2917  01D7  35D6               	lslf	___flmul@grs^(0+128),f
  2918  01D8  0DD7               	rlf	(___flmul@grs+1)^(0+128),f
  2919  01D9  0DD8               	rlf	(___flmul@grs+2)^(0+128),f
  2920  01DA  0DD9               	rlf	(___flmul@grs+3)^(0+128),f
  2921  01DB  0B89               	decfsz	9,f
  2922  01DC  29D7               	goto	u2365
  2923  01DD  0848               	movf	___flmul@b^(0+128),w
  2924  01DE  00D0               	movwf	??___flmul^(0+128)
  2925  01DF  0850               	movf	??___flmul^(0+128),w
  2926  01E0  00A0               	movwf	__Umul8_16@multiplicand^(0+128)
  2927  01E1  084C               	movf	___flmul@a^(0+128),w
  2928  01E2  3189  21C3  3180   	fcall	__Umul8_16
  2929  01E5  0141               	movlb	1	; select bank1
  2930  01E6  0821               	movf	(?__Umul8_16+1)^(0+128),w
  2931  01E7  00E1               	movwf	(___flmul@temp+1)^(0+128)
  2932  01E8  0820               	movf	?__Umul8_16^(0+128),w
  2933  01E9  00E0               	movwf	___flmul@temp^(0+128)
  2934  01EA  0860               	movf	___flmul@temp^(0+128),w
  2935  01EB  07D6               	addwf	___flmul@grs^(0+128),f
  2936  01EC  0861               	movf	(___flmul@temp+1)^(0+128),w
  2937  01ED  3DD7               	addwfc	(___flmul@grs+1)^(0+128),f
  2938  01EE  3000               	movlw	0
  2939  01EF  3DD8               	addwfc	(___flmul@grs+2)^(0+128),f
  2940  01F0  3DD9               	addwfc	(___flmul@grs+3)^(0+128),f
  2941  01F1  0849               	movf	(___flmul@b^(0+128)+1),w
  2942  01F2  00D0               	movwf	??___flmul^(0+128)
  2943  01F3  0850               	movf	??___flmul^(0+128),w
  2944  01F4  00A0               	movwf	__Umul8_16@multiplicand^(0+128)
  2945  01F5  084E               	movf	(___flmul@a^(0+128)+2),w
  2946  01F6  3189  21C3  3180   	fcall	__Umul8_16
  2947  01F9  0141               	movlb	1	; select bank1
  2948  01FA  0821               	movf	(?__Umul8_16+1)^(0+128),w
  2949  01FB  00E1               	movwf	(___flmul@temp+1)^(0+128)
  2950  01FC  0820               	movf	?__Umul8_16^(0+128),w
  2951  01FD  00E0               	movwf	___flmul@temp^(0+128)
  2952  01FE  0860               	movf	___flmul@temp^(0+128),w
  2953  01FF  07DC               	addwf	___flmul@prod^(0+128),f
  2954  0200  0861               	movf	(___flmul@temp+1)^(0+128),w
  2955  0201  3DDD               	addwfc	(___flmul@prod+1)^(0+128),f
  2956  0202  3000               	movlw	0
  2957  0203  3DDE               	addwfc	(___flmul@prod+2)^(0+128),f
  2958  0204  3DDF               	addwfc	(___flmul@prod+3)^(0+128),f
  2959  0205  084A               	movf	(___flmul@b^(0+128)+2),w
  2960  0206  00D0               	movwf	??___flmul^(0+128)
  2961  0207  0850               	movf	??___flmul^(0+128),w
  2962  0208  00A0               	movwf	__Umul8_16@multiplicand^(0+128)
  2963  0209  084D               	movf	(___flmul@a^(0+128)+1),w
  2964  020A  3189  21C3  3180   	fcall	__Umul8_16
  2965  020D  0141               	movlb	1	; select bank1
  2966  020E  0821               	movf	(?__Umul8_16+1)^(0+128),w
  2967  020F  00E1               	movwf	(___flmul@temp+1)^(0+128)
  2968  0210  0820               	movf	?__Umul8_16^(0+128),w
  2969  0211  00E0               	movwf	___flmul@temp^(0+128)
  2970  0212  0860               	movf	___flmul@temp^(0+128),w
  2971  0213  07DC               	addwf	___flmul@prod^(0+128),f
  2972  0214  0861               	movf	(___flmul@temp+1)^(0+128),w
  2973  0215  3DDD               	addwfc	(___flmul@prod+1)^(0+128),f
  2974  0216  3000               	movlw	0
  2975  0217  3DDE               	addwfc	(___flmul@prod+2)^(0+128),f
  2976  0218  3DDF               	addwfc	(___flmul@prod+3)^(0+128),f
  2977  0219  084A               	movf	(___flmul@b^(0+128)+2),w
  2978  021A  00D0               	movwf	??___flmul^(0+128)
  2979  021B  0850               	movf	??___flmul^(0+128),w
  2980  021C  00A0               	movwf	__Umul8_16@multiplicand^(0+128)
  2981  021D  084E               	movf	(___flmul@a^(0+128)+2),w
  2982  021E  3189  21C3  3180   	fcall	__Umul8_16
  2983  0221  0141               	movlb	1	; select bank1
  2984  0222  0821               	movf	(?__Umul8_16+1)^(0+128),w
  2985  0223  00E1               	movwf	(___flmul@temp+1)^(0+128)
  2986  0224  0820               	movf	?__Umul8_16^(0+128),w
  2987  0225  00E0               	movwf	___flmul@temp^(0+128)
  2988  0226  0860               	movf	___flmul@temp^(0+128),w
  2989  0227  00D0               	movwf	??___flmul^(0+128)
  2990  0228  0861               	movf	(___flmul@temp+1)^(0+128),w
  2991  0229  00D1               	movwf	(??___flmul^(0+128)+1)
  2992  022A  01D2               	clrf	(??___flmul^(0+128)+2)
  2993  022B  01D3               	clrf	(??___flmul^(0+128)+3)
  2994  022C  3008               	movlw	8
  2995  022D                     u2375:	
  2996  022D  35D0               	lslf	??___flmul^(0+128),f
  2997  022E  0DD1               	rlf	(??___flmul^(0+128)+1),f
  2998  022F  0DD2               	rlf	(??___flmul^(0+128)+2),f
  2999  0230  0DD3               	rlf	(??___flmul^(0+128)+3),f
  3000  0231  0B89               	decfsz	9,f
  3001  0232  2A2D               	goto	u2375
  3002  0233  0850               	movf	??___flmul^(0+128),w
  3003  0234  07DC               	addwf	___flmul@prod^(0+128),f
  3004  0235  0851               	movf	(??___flmul+1)^(0+128),w
  3005  0236  3DDD               	addwfc	(___flmul@prod+1)^(0+128),f
  3006  0237  0852               	movf	(??___flmul+2)^(0+128),w
  3007  0238  3DDE               	addwfc	(___flmul@prod+2)^(0+128),f
  3008  0239  0853               	movf	(??___flmul+3)^(0+128),w
  3009  023A  3DDF               	addwfc	(___flmul@prod+3)^(0+128),f
  3010  023B  0856               	movf	___flmul@grs^(0+128),w
  3011  023C  00D0               	movwf	??___flmul^(0+128)
  3012  023D  0857               	movf	(___flmul@grs+1)^(0+128),w
  3013  023E  00D1               	movwf	(??___flmul^(0+128)+1)
  3014  023F  0858               	movf	(___flmul@grs+2)^(0+128),w
  3015  0240  00D2               	movwf	(??___flmul^(0+128)+2)
  3016  0241  0859               	movf	(___flmul@grs+3)^(0+128),w
  3017  0242  00D3               	movwf	(??___flmul^(0+128)+3)
  3018  0243  3018               	movlw	24
  3019  0244                     u2385:	
  3020  0244  36D3               	lsrf	(??___flmul^(0+128)+3),f
  3021  0245  0CD2               	rrf	(??___flmul^(0+128)+2),f
  3022  0246  0CD1               	rrf	(??___flmul^(0+128)+1),f
  3023  0247  0CD0               	rrf	??___flmul^(0+128),f
  3024  0248  0B89               	decfsz	9,f
  3025  0249  2A44               	goto	u2385
  3026  024A  0850               	movf	??___flmul^(0+128),w
  3027  024B  07DC               	addwf	___flmul@prod^(0+128),f
  3028  024C  0851               	movf	(??___flmul+1)^(0+128),w
  3029  024D  3DDD               	addwfc	(___flmul@prod+1)^(0+128),f
  3030  024E  0852               	movf	(??___flmul+2)^(0+128),w
  3031  024F  3DDE               	addwfc	(___flmul@prod+2)^(0+128),f
  3032  0250  0853               	movf	(??___flmul+3)^(0+128),w
  3033  0251  3DDF               	addwfc	(___flmul@prod+3)^(0+128),f
  3034  0252  3008               	movlw	8
  3035  0253                     u2395:	
  3036  0253  35D6               	lslf	___flmul@grs^(0+128),f
  3037  0254  0DD7               	rlf	(___flmul@grs+1)^(0+128),f
  3038  0255  0DD8               	rlf	(___flmul@grs+2)^(0+128),f
  3039  0256  0DD9               	rlf	(___flmul@grs+3)^(0+128),f
  3040  0257  0B89               	decfsz	9,f
  3041  0258  2A53               	goto	u2395
  3042  0259  085B               	movf	___flmul@bexp^(0+128),w
  3043  025A  075A               	addwf	___flmul@aexp^(0+128),w
  3044  025B  00D0               	movwf	??___flmul^(0+128)
  3045  025C  01D1               	clrf	(??___flmul^(0+128)+1)
  3046  025D  0DD1               	rlf	(??___flmul+1)^(0+128),f
  3047  025E  0850               	movf	??___flmul^(0+128),w
  3048  025F  3E82               	addlw	130
  3049  0260  00E0               	movwf	___flmul@temp^(0+128)
  3050  0261  30FF               	movlw	255
  3051  0262  3D51               	addwfc	(??___flmul+1)^(0+128),w
  3052  0263  00E1               	movwf	(___flmul@temp+1)^(0+128)
  3053  0264                     l1978:	
  3054  0264  1BDE               	btfsc	(___flmul@prod+2)^(0+128),7
  3055  0265  2A7B               	goto	l1980
  3056  0266  3001               	movlw	1
  3057  0267                     u2405:	
  3058  0267  35DC               	lslf	___flmul@prod^(0+128),f
  3059  0268  0DDD               	rlf	(___flmul@prod+1)^(0+128),f
  3060  0269  0DDE               	rlf	(___flmul@prod+2)^(0+128),f
  3061  026A  0DDF               	rlf	(___flmul@prod+3)^(0+128),f
  3062  026B  0B89               	decfsz	9,f
  3063  026C  2A67               	goto	u2405
  3064  026D  1BD9               	btfsc	(___flmul@grs+3)^(0+128),7
  3065  026E  145C               	bsf	___flmul@prod^(0+128),0
  3066  026F  3001               	movlw	1
  3067  0270                     u2425:	
  3068  0270  35D6               	lslf	___flmul@grs^(0+128),f
  3069  0271  0DD7               	rlf	(___flmul@grs+1)^(0+128),f
  3070  0272  0DD8               	rlf	(___flmul@grs+2)^(0+128),f
  3071  0273  0DD9               	rlf	(___flmul@grs+3)^(0+128),f
  3072  0274  0B89               	decfsz	9,f
  3073  0275  2A70               	goto	u2425
  3074  0276  30FF               	movlw	255
  3075  0277  07E0               	addwf	___flmul@temp^(0+128),f
  3076  0278  30FF               	movlw	255
  3077  0279  3DE1               	addwfc	(___flmul@temp+1)^(0+128),f
  3078  027A  2A64               	goto	l1978
  3079  027B                     l1980:	
  3080  027B  01DA               	clrf	___flmul@aexp^(0+128)
  3081  027C  1FD9               	btfss	(___flmul@grs+3)^(0+128),7
  3082  027D  2A94               	goto	l1990
  3083  027E  30FF               	movlw	255
  3084  027F  0556               	andwf	___flmul@grs^(0+128),w
  3085  0280  00D0               	movwf	??___flmul^(0+128)
  3086  0281  30FF               	movlw	255
  3087  0282  0557               	andwf	(___flmul@grs+1)^(0+128),w
  3088  0283  00D1               	movwf	(??___flmul^(0+128)+1)
  3089  0284  30FF               	movlw	255
  3090  0285  0558               	andwf	(___flmul@grs+2)^(0+128),w
  3091  0286  00D2               	movwf	(??___flmul^(0+128)+2)
  3092  0287  307F               	movlw	127
  3093  0288  0559               	andwf	(___flmul@grs+3)^(0+128),w
  3094  0289  00D3               	movwf	(??___flmul^(0+128)+3)
  3095  028A  0853               	movf	(??___flmul+3)^(0+128),w
  3096  028B  0452               	iorwf	(??___flmul+2)^(0+128),w
  3097  028C  0451               	iorwf	(??___flmul+1)^(0+128),w
  3098  028D  0450               	iorwf	??___flmul^(0+128),w
  3099  028E  1903               	skipnz
  3100  028F  185C               	btfsc	___flmul@prod^(0+128),0
  3101  0290  2A92               	goto	l1986
  3102  0291  2A94               	goto	l1990
  3103  0292                     l1986:	
  3104  0292  01DA               	clrf	___flmul@aexp^(0+128)
  3105  0293  0ADA               	incf	___flmul@aexp^(0+128),f
  3106  0294                     l1990:	
  3107  0294  085A               	movf	___flmul@aexp^(0+128),w
  3108  0295  1903               	btfsc	3,2
  3109  0296  2ABD               	goto	l2000
  3110  0297  3001               	movlw	1
  3111  0298  07DC               	addwf	___flmul@prod^(0+128),f
  3112  0299  3000               	movlw	0
  3113  029A  3DDD               	addwfc	(___flmul@prod+1)^(0+128),f
  3114  029B  3000               	movlw	0
  3115  029C  3DDE               	addwfc	(___flmul@prod+2)^(0+128),f
  3116  029D  3000               	movlw	0
  3117  029E  3DDF               	addwfc	(___flmul@prod+3)^(0+128),f
  3118  029F  1C5F               	btfss	(___flmul@prod+3)^(0+128),0
  3119  02A0  2ABD               	goto	l2000
  3120  02A1  085C               	movf	___flmul@prod^(0+128),w
  3121  02A2  00D0               	movwf	??___flmul^(0+128)
  3122  02A3  085D               	movf	(___flmul@prod+1)^(0+128),w
  3123  02A4  00D1               	movwf	(??___flmul^(0+128)+1)
  3124  02A5  085E               	movf	(___flmul@prod+2)^(0+128),w
  3125  02A6  00D2               	movwf	(??___flmul^(0+128)+2)
  3126  02A7  085F               	movf	(___flmul@prod+3)^(0+128),w
  3127  02A8  00D3               	movwf	(??___flmul^(0+128)+3)
  3128  02A9  3001               	movlw	1
  3129  02AA  00D4               	movwf	(??___flmul+4)^(0+128)
  3130  02AB                     u2495:	
  3131  02AB  37D3               	asrf	(??___flmul^(0+128)+3),f
  3132  02AC  0CD2               	rrf	(??___flmul^(0+128)+2),f
  3133  02AD  0CD1               	rrf	(??___flmul^(0+128)+1),f
  3134  02AE  0CD0               	rrf	??___flmul^(0+128),f
  3135  02AF  0BD4               	decfsz	(??___flmul+4)^(0+128),f
  3136  02B0  2AAB               	goto	u2495
  3137  02B1  0853               	movf	(??___flmul+3)^(0+128),w
  3138  02B2  00DF               	movwf	(___flmul@prod+3)^(0+128)
  3139  02B3  0852               	movf	(??___flmul+2)^(0+128),w
  3140  02B4  00DE               	movwf	(___flmul@prod+2)^(0+128)
  3141  02B5  0851               	movf	(??___flmul+1)^(0+128),w
  3142  02B6  00DD               	movwf	(___flmul@prod+1)^(0+128)
  3143  02B7  0850               	movf	??___flmul^(0+128),w
  3144  02B8  00DC               	movwf	___flmul@prod^(0+128)
  3145  02B9  3001               	movlw	1
  3146  02BA  07E0               	addwf	___flmul@temp^(0+128),f
  3147  02BB  3000               	movlw	0
  3148  02BC  3DE1               	addwfc	(___flmul@temp+1)^(0+128),f
  3149  02BD                     l2000:	
  3150  02BD  0861               	movf	(___flmul@temp+1)^(0+128),w
  3151  02BE  3A80               	xorlw	128
  3152  02BF  00D0               	movwf	??___flmul^(0+128)
  3153  02C0  3080               	movlw	128
  3154  02C1  0250               	subwf	??___flmul^(0+128),w
  3155  02C2  1D03               	skipz
  3156  02C3  2AC6               	goto	u2505
  3157  02C4  30FF               	movlw	255
  3158  02C5  0260               	subwf	___flmul@temp^(0+128),w
  3159  02C6                     u2505:	
  3160  02C6  1C03               	skipc
  3161  02C7  2AD2               	goto	l2004
  3162  02C8  307F               	movlw	127
  3163  02C9  0141               	movlb	1	; select bank1
  3164  02CA  00DF               	movwf	(___flmul@prod+3)^(0+128)
  3165  02CB  3080               	movlw	128
  3166  02CC  00DE               	movwf	(___flmul@prod+2)^(0+128)
  3167  02CD  3000               	movlw	0
  3168  02CE  00DD               	movwf	(___flmul@prod+1)^(0+128)
  3169  02CF  3000               	movlw	0
  3170  02D0  00DC               	movwf	___flmul@prod^(0+128)
  3171  02D1  2AFC               	goto	l661
  3172  02D2                     l2004:	
  3173  02D2  0141               	movlb	1	; select bank1
  3174  02D3  0861               	movf	(___flmul@temp+1)^(0+128),w
  3175  02D4  3A80               	xorlw	128
  3176  02D5  00D0               	movwf	??___flmul^(0+128)
  3177  02D6  3080               	movlw	128
  3178  02D7  0250               	subwf	??___flmul^(0+128),w
  3179  02D8  1D03               	skipz
  3180  02D9  2ADC               	goto	u2515
  3181  02DA  3001               	movlw	1
  3182  02DB  0260               	subwf	___flmul@temp^(0+128),w
  3183  02DC                     u2515:	
  3184  02DC  1803               	skipnc
  3185  02DD  2AE9               	goto	l2010
  3186  02DE  3000               	movlw	0
  3187  02DF  0141               	movlb	1	; select bank1
  3188  02E0  00DF               	movwf	(___flmul@prod+3)^(0+128)
  3189  02E1  3000               	movlw	0
  3190  02E2  00DE               	movwf	(___flmul@prod+2)^(0+128)
  3191  02E3  3000               	movlw	0
  3192  02E4  00DD               	movwf	(___flmul@prod+1)^(0+128)
  3193  02E5  3000               	movlw	0
  3194  02E6  00DC               	movwf	___flmul@prod^(0+128)
  3195  02E7  01D5               	clrf	___flmul@sign^(0+128)
  3196  02E8  2AFC               	goto	l661
  3197  02E9                     l2010:	
  3198  02E9  0141               	movlb	1	; select bank1
  3199  02EA  0860               	movf	___flmul@temp^(0+128),w
  3200  02EB  00D0               	movwf	??___flmul^(0+128)
  3201  02EC  0850               	movf	??___flmul^(0+128),w
  3202  02ED  00DB               	movwf	___flmul@bexp^(0+128)
  3203  02EE  30FF               	movlw	255
  3204  02EF  05DC               	andwf	___flmul@prod^(0+128),f
  3205  02F0  30FF               	movlw	255
  3206  02F1  05DD               	andwf	(___flmul@prod+1)^(0+128),f
  3207  02F2  307F               	movlw	127
  3208  02F3  05DE               	andwf	(___flmul@prod+2)^(0+128),f
  3209  02F4  3000               	movlw	0
  3210  02F5  05DF               	andwf	(___flmul@prod+3)^(0+128),f
  3211  02F6  185B               	btfsc	___flmul@bexp^(0+128),0
  3212  02F7  17DE               	bsf	(___flmul@prod^(0+128)+2),7
  3213  02F8  365B               	lsrf	___flmul@bexp^(0+128),w
  3214  02F9  00D0               	movwf	??___flmul^(0+128)
  3215  02FA  0850               	movf	??___flmul^(0+128),w
  3216  02FB  00DF               	movwf	(___flmul@prod^(0+128)+3)
  3217  02FC                     l661:	
  3218  02FC  0855               	movf	___flmul@sign^(0+128),w
  3219  02FD  00D0               	movwf	??___flmul^(0+128)
  3220  02FE  0850               	movf	??___flmul^(0+128),w
  3221  02FF  04DF               	iorwf	(___flmul@prod^(0+128)+3),f
  3222  0300  085F               	movf	(___flmul@prod+3)^(0+128),w
  3223  0301  00CB               	movwf	(?___flmul+3)^(0+128)
  3224  0302  085E               	movf	(___flmul@prod+2)^(0+128),w
  3225  0303  00CA               	movwf	(?___flmul+2)^(0+128)
  3226  0304  085D               	movf	(___flmul@prod+1)^(0+128),w
  3227  0305  00C9               	movwf	(?___flmul+1)^(0+128)
  3228  0306  085C               	movf	___flmul@prod^(0+128),w
  3229  0307  00C8               	movwf	?___flmul^(0+128)
  3230  0308  0008               	return
  3231  0309                     __end_of___flmul:	
  3232                           
  3233                           	psect	text10
  3234  09C3                     __ptext10:	
  3235 ;; *************** function __Umul8_16 *****************
  3236 ;; Defined at:
  3237 ;;		line 4 in file "C:\Program Files (x86)\Microchip\xc8\v2.05\pic\sources\c99\common\Umul8_16.c"
  3238 ;; Parameters:    Size  Location     Type
  3239 ;;  multiplier      1    wreg     unsigned char 
  3240 ;;  multiplicand    1    0[BANK1 ] unsigned char 
  3241 ;; Auto vars:     Size  Location     Type
  3242 ;;  multiplier      1    8[BANK1 ] unsigned char 
  3243 ;;  word_mpld       2    6[BANK1 ] unsigned int 
  3244 ;;  product         2    4[BANK1 ] unsigned int 
  3245 ;; Return value:  Size  Location     Type
  3246 ;;                  2    0[BANK1 ] unsigned int 
  3247 ;; Registers used:
  3248 ;;		wreg, status,2, status,0
  3249 ;; Tracked objects:
  3250 ;;		On entry : 0/0
  3251 ;;		On exit  : 0/0
  3252 ;;		Unchanged: 0/0
  3253 ;; Data sizes:     COMMON   BANK0   BANK1   BANK2   BANK3   BANK4   BANK5   BANK6
  3254 ;;      Params:         0       0       2       0       0       0       0       0
  3255 ;;      Locals:         0       0       5       0       0       0       0       0
  3256 ;;      Temps:          0       0       2       0       0       0       0       0
  3257 ;;      Totals:         0       0       9       0       0       0       0       0
  3258 ;;Total ram usage:        9 bytes
  3259 ;; Hardware stack levels used:    1
  3260 ;; Hardware stack levels required when called:    3
  3261 ;; This function calls:
  3262 ;;		Nothing
  3263 ;; This function is called by:
  3264 ;;		___flmul
  3265 ;; This function uses a non-reentrant model
  3266 ;;
  3267                           
  3268                           
  3269                           ;psect for function __Umul8_16
  3270  09C3                     __Umul8_16:	
  3271                           
  3272                           ;incstack = 0
  3273                           ; Regs used in __Umul8_16: [wreg+status,2+status,0]
  3274                           ;__Umul8_16@multiplier stored from wreg
  3275  09C3  0141               	movlb	1	; select bank1
  3276  09C4  00A8               	movwf	__Umul8_16@multiplier^(0+128)
  3277  09C5  01A4               	clrf	__Umul8_16@product^(0+128)
  3278  09C6  01A5               	clrf	(__Umul8_16@product+1)^(0+128)
  3279  09C7  0820               	movf	__Umul8_16@multiplicand^(0+128),w
  3280  09C8  00A2               	movwf	??__Umul8_16^(0+128)
  3281  09C9  01A3               	clrf	(??__Umul8_16^(0+128)+1)
  3282  09CA  0822               	movf	??__Umul8_16^(0+128),w
  3283  09CB  00A6               	movwf	__Umul8_16@word_mpld^(0+128)
  3284  09CC  0823               	movf	(??__Umul8_16+1)^(0+128),w
  3285  09CD  00A7               	movwf	(__Umul8_16@word_mpld+1)^(0+128)
  3286  09CE                     l1732:	
  3287  09CE  1C28               	btfss	__Umul8_16@multiplier^(0+128),0
  3288  09CF  29D4               	goto	l706
  3289  09D0  0826               	movf	__Umul8_16@word_mpld^(0+128),w
  3290  09D1  07A4               	addwf	__Umul8_16@product^(0+128),f
  3291  09D2  0827               	movf	(__Umul8_16@word_mpld+1)^(0+128),w
  3292  09D3  3DA5               	addwfc	(__Umul8_16@product+1)^(0+128),f
  3293  09D4                     l706:	
  3294  09D4  3001               	movlw	1
  3295  09D5                     u1965:	
  3296  09D5  35A6               	lslf	__Umul8_16@word_mpld^(0+128),f
  3297  09D6  0DA7               	rlf	(__Umul8_16@word_mpld+1)^(0+128),f
  3298  09D7  0B89               	decfsz	9,f
  3299  09D8  29D5               	goto	u1965
  3300  09D9  1003               	clrc
  3301  09DA  0CA8               	rrf	__Umul8_16@multiplier^(0+128),f
  3302  09DB  0828               	movf	__Umul8_16@multiplier^(0+128),w
  3303  09DC  1D03               	btfss	3,2
  3304  09DD  29CE               	goto	l1732
  3305  09DE  0825               	movf	(__Umul8_16@product+1)^(0+128),w
  3306  09DF  00A1               	movwf	(?__Umul8_16+1)^(0+128)
  3307  09E0  0824               	movf	__Umul8_16@product^(0+128),w
  3308  09E1  00A0               	movwf	?__Umul8_16^(0+128)
  3309  09E2  0008               	return
  3310  09E3                     __end_of__Umul8_16:	
  3311                           
  3312                           	psect	text11
  3313  0535                     __ptext11:	
  3314 ;; *************** function ___fldiv *****************
  3315 ;; Defined at:
  3316 ;;		line 8 in file "C:\Program Files (x86)\Microchip\xc8\v2.05\pic\sources\c99\common\sprcdiv.c"
  3317 ;; Parameters:    Size  Location     Type
  3318 ;;  a               4   14[BANK1 ] unsigned int 
  3319 ;;  b               4   18[BANK1 ] unsigned int 
  3320 ;; Auto vars:     Size  Location     Type
  3321 ;;  grs             4   34[BANK1 ] unsigned long 
  3322 ;;  rem             4   27[BANK1 ] unsigned long 
  3323 ;;  new_exp         2   32[BANK1 ] int 
  3324 ;;  aexp            1   39[BANK1 ] unsigned char 
  3325 ;;  bexp            1   38[BANK1 ] unsigned char 
  3326 ;;  sign            1   31[BANK1 ] unsigned char 
  3327 ;; Return value:  Size  Location     Type
  3328 ;;                  4   14[BANK1 ] unsigned char 
  3329 ;; Registers used:
  3330 ;;		wreg, status,2, status,0
  3331 ;; Tracked objects:
  3332 ;;		On entry : 0/0
  3333 ;;		On exit  : 0/0
  3334 ;;		Unchanged: 0/0
  3335 ;; Data sizes:     COMMON   BANK0   BANK1   BANK2   BANK3   BANK4   BANK5   BANK6
  3336 ;;      Params:         0       0       8       0       0       0       0       0
  3337 ;;      Locals:         0       0      13       0       0       0       0       0
  3338 ;;      Temps:          0       0       5       0       0       0       0       0
  3339 ;;      Totals:         0       0      26       0       0       0       0       0
  3340 ;;Total ram usage:       26 bytes
  3341 ;; Hardware stack levels used:    1
  3342 ;; Hardware stack levels required when called:    3
  3343 ;; This function calls:
  3344 ;;		Nothing
  3345 ;; This function is called by:
  3346 ;;		_getNTCV
  3347 ;; This function uses a non-reentrant model
  3348 ;;
  3349                           
  3350                           
  3351                           ;psect for function ___fldiv
  3352  0535                     ___fldiv:	
  3353                           
  3354                           ;incstack = 0
  3355                           ; Regs used in ___fldiv: [wreg+status,2+status,0]
  3356  0535  0141               	movlb	1	; select bank1
  3357  0536  0835               	movf	(___fldiv@b^(0+128)+3),w
  3358  0537  3980               	andlw	128
  3359  0538  00B6               	movwf	??___fldiv^(0+128)
  3360  0539  0836               	movf	??___fldiv^(0+128),w
  3361  053A  00BF               	movwf	___fldiv@sign^(0+128)
  3362  053B  3535               	lslf	(___fldiv@b^(0+128)+3),w
  3363  053C  00B6               	movwf	??___fldiv^(0+128)
  3364  053D  0836               	movf	??___fldiv^(0+128),w
  3365  053E  00C6               	movwf	___fldiv@bexp^(0+128)
  3366  053F  1BB4               	btfsc	(___fldiv@b^(0+128)+2),7
  3367  0540  1446               	bsf	___fldiv@bexp^(0+128),0
  3368  0541  0846               	movf	___fldiv@bexp^(0+128),w
  3369  0542  1903               	btfsc	3,2
  3370  0543  2D52               	goto	l1760
  3371  0544  0A46               	incf	___fldiv@bexp^(0+128),w
  3372  0545  1D03               	btfss	3,2
  3373  0546  2D4F               	goto	l1756
  3374  0547  3000               	movlw	0
  3375  0548  00B5               	movwf	(___fldiv@b+3)^(0+128)
  3376  0549  3000               	movlw	0
  3377  054A  00B4               	movwf	(___fldiv@b+2)^(0+128)
  3378  054B  3000               	movlw	0
  3379  054C  00B3               	movwf	(___fldiv@b+1)^(0+128)
  3380  054D  3000               	movlw	0
  3381  054E  00B2               	movwf	___fldiv@b^(0+128)
  3382  054F                     l1756:	
  3383  054F  17B4               	bsf	(___fldiv@b^(0+128)+2),7
  3384  0550  01B5               	clrf	(___fldiv@b^(0+128)+3)
  3385  0551  2D5A               	goto	l1762
  3386  0552                     l1760:	
  3387  0552  3000               	movlw	0
  3388  0553  00B5               	movwf	(___fldiv@b+3)^(0+128)
  3389  0554  3000               	movlw	0
  3390  0555  00B4               	movwf	(___fldiv@b+2)^(0+128)
  3391  0556  3000               	movlw	0
  3392  0557  00B3               	movwf	(___fldiv@b+1)^(0+128)
  3393  0558  3000               	movlw	0
  3394  0559  00B2               	movwf	___fldiv@b^(0+128)
  3395  055A                     l1762:	
  3396  055A  0831               	movf	(___fldiv@a^(0+128)+3),w
  3397  055B  3980               	andlw	128
  3398  055C  00B6               	movwf	??___fldiv^(0+128)
  3399  055D  0836               	movf	??___fldiv^(0+128),w
  3400  055E  06BF               	xorwf	___fldiv@sign^(0+128),f
  3401  055F  3531               	lslf	(___fldiv@a^(0+128)+3),w
  3402  0560  00B6               	movwf	??___fldiv^(0+128)
  3403  0561  0836               	movf	??___fldiv^(0+128),w
  3404  0562  00C7               	movwf	___fldiv@aexp^(0+128)
  3405  0563  1BB0               	btfsc	(___fldiv@a^(0+128)+2),7
  3406  0564  1447               	bsf	___fldiv@aexp^(0+128),0
  3407  0565  0847               	movf	___fldiv@aexp^(0+128),w
  3408  0566  1903               	btfsc	3,2
  3409  0567  2D76               	goto	l1780
  3410  0568  0A47               	incf	___fldiv@aexp^(0+128),w
  3411  0569  1D03               	btfss	3,2
  3412  056A  2D73               	goto	l1776
  3413  056B  3000               	movlw	0
  3414  056C  00B1               	movwf	(___fldiv@a+3)^(0+128)
  3415  056D  3000               	movlw	0
  3416  056E  00B0               	movwf	(___fldiv@a+2)^(0+128)
  3417  056F  3000               	movlw	0
  3418  0570  00AF               	movwf	(___fldiv@a+1)^(0+128)
  3419  0571  3000               	movlw	0
  3420  0572  00AE               	movwf	___fldiv@a^(0+128)
  3421  0573                     l1776:	
  3422  0573  17B0               	bsf	(___fldiv@a^(0+128)+2),7
  3423  0574  01B1               	clrf	(___fldiv@a^(0+128)+3)
  3424  0575  2D7E               	goto	l609
  3425  0576                     l1780:	
  3426  0576  3000               	movlw	0
  3427  0577  00B1               	movwf	(___fldiv@a+3)^(0+128)
  3428  0578  3000               	movlw	0
  3429  0579  00B0               	movwf	(___fldiv@a+2)^(0+128)
  3430  057A  3000               	movlw	0
  3431  057B  00AF               	movwf	(___fldiv@a+1)^(0+128)
  3432  057C  3000               	movlw	0
  3433  057D  00AE               	movwf	___fldiv@a^(0+128)
  3434  057E                     l609:	
  3435  057E  0831               	movf	(___fldiv@a+3)^(0+128),w
  3436  057F  0430               	iorwf	(___fldiv@a+2)^(0+128),w
  3437  0580  042F               	iorwf	(___fldiv@a+1)^(0+128),w
  3438  0581  042E               	iorwf	___fldiv@a^(0+128),w
  3439  0582  1D03               	skipz
  3440  0583  2D9D               	goto	l1790
  3441  0584  3000               	movlw	0
  3442  0585  00B5               	movwf	(___fldiv@b+3)^(0+128)
  3443  0586  3000               	movlw	0
  3444  0587  00B4               	movwf	(___fldiv@b+2)^(0+128)
  3445  0588  3000               	movlw	0
  3446  0589  00B3               	movwf	(___fldiv@b+1)^(0+128)
  3447  058A  3000               	movlw	0
  3448  058B  00B2               	movwf	___fldiv@b^(0+128)
  3449  058C  3080               	movlw	128
  3450  058D  04B4               	iorwf	(___fldiv@b^(0+128)+2),f
  3451  058E  307F               	movlw	127
  3452  058F  04B5               	iorwf	((___fldiv@b+1)^(0+128)+2),f
  3453  0590                     L1:	
  3454  0590  083F               	movf	___fldiv@sign^(0+128),w
  3455  0591  00B6               	movwf	??___fldiv^(0+128)
  3456  0592  0836               	movf	??___fldiv^(0+128),w
  3457  0593  04B5               	iorwf	(___fldiv@b^(0+128)+3),f
  3458  0594  0835               	movf	(___fldiv@b+3)^(0+128),w
  3459  0595  00B1               	movwf	(?___fldiv+3)^(0+128)
  3460  0596  0834               	movf	(___fldiv@b+2)^(0+128),w
  3461  0597  00B0               	movwf	(?___fldiv+2)^(0+128)
  3462  0598  0833               	movf	(___fldiv@b+1)^(0+128),w
  3463  0599  00AF               	movwf	(?___fldiv+1)^(0+128)
  3464  059A  0832               	movf	___fldiv@b^(0+128),w
  3465  059B  00AE               	movwf	?___fldiv^(0+128)
  3466  059C  0008               	return
  3467  059D                     l1790:	
  3468  059D  0846               	movf	___fldiv@bexp^(0+128),w
  3469  059E  1D03               	btfss	3,2
  3470  059F  2DA9               	goto	l1796
  3471  05A0  3000               	movlw	0
  3472  05A1  00B1               	movwf	(?___fldiv+3)^(0+128)
  3473  05A2  3000               	movlw	0
  3474  05A3  00B0               	movwf	(?___fldiv+2)^(0+128)
  3475  05A4  3000               	movlw	0
  3476  05A5  00AF               	movwf	(?___fldiv+1)^(0+128)
  3477  05A6  3000               	movlw	0
  3478  05A7  00AE               	movwf	?___fldiv^(0+128)
  3479  05A8  0008               	return
  3480  05A9                     l1796:	
  3481  05A9  0846               	movf	___fldiv@bexp^(0+128),w
  3482  05AA  00B6               	movwf	??___fldiv^(0+128)
  3483  05AB  01B7               	clrf	(??___fldiv^(0+128)+1)
  3484  05AC  0837               	movf	(??___fldiv+1)^(0+128),w
  3485  05AD  00B9               	movwf	((??___fldiv+2)^(0+128)+1)
  3486  05AE  0847               	movf	___fldiv@aexp^(0+128),w
  3487  05AF  0236               	subwf	??___fldiv^(0+128),w
  3488  05B0  00B8               	movwf	(??___fldiv+2)^(0+128)
  3489  05B1  1C03               	skipc
  3490  05B2  03B9               	decf	((??___fldiv+2)^(0+128)+1),f
  3491  05B3  0838               	movf	(??___fldiv+2)^(0+128),w
  3492  05B4  3E7F               	addlw	127
  3493  05B5  00C0               	movwf	___fldiv@new_exp^(0+128)
  3494  05B6  3000               	movlw	0
  3495  05B7  3D39               	addwfc	(??___fldiv+3)^(0+128),w
  3496  05B8  00C1               	movwf	(___fldiv@new_exp+1)^(0+128)
  3497  05B9  0835               	movf	(___fldiv@b+3)^(0+128),w
  3498  05BA  00BE               	movwf	(___fldiv@rem+3)^(0+128)
  3499  05BB  0834               	movf	(___fldiv@b+2)^(0+128),w
  3500  05BC  00BD               	movwf	(___fldiv@rem+2)^(0+128)
  3501  05BD  0833               	movf	(___fldiv@b+1)^(0+128),w
  3502  05BE  00BC               	movwf	(___fldiv@rem+1)^(0+128)
  3503  05BF  0832               	movf	___fldiv@b^(0+128),w
  3504  05C0  00BB               	movwf	___fldiv@rem^(0+128)
  3505  05C1  3000               	movlw	0
  3506  05C2  00B5               	movwf	(___fldiv@b+3)^(0+128)
  3507  05C3  3000               	movlw	0
  3508  05C4  00B4               	movwf	(___fldiv@b+2)^(0+128)
  3509  05C5  3000               	movlw	0
  3510  05C6  00B3               	movwf	(___fldiv@b+1)^(0+128)
  3511  05C7  3000               	movlw	0
  3512  05C8  00B2               	movwf	___fldiv@b^(0+128)
  3513  05C9  3000               	movlw	0
  3514  05CA  00C5               	movwf	(___fldiv@grs+3)^(0+128)
  3515  05CB  3000               	movlw	0
  3516  05CC  00C4               	movwf	(___fldiv@grs+2)^(0+128)
  3517  05CD  3000               	movlw	0
  3518  05CE  00C3               	movwf	(___fldiv@grs+1)^(0+128)
  3519  05CF  3000               	movlw	0
  3520  05D0  00C2               	movwf	___fldiv@grs^(0+128)
  3521  05D1  01C7               	clrf	___fldiv@aexp^(0+128)
  3522  05D2                     l1824:	
  3523  05D2  301A               	movlw	26
  3524  05D3  0247               	subwf	___fldiv@aexp^(0+128),w
  3525  05D4  1803               	btfsc	3,0
  3526  05D5  2E0E               	goto	l1826
  3527  05D6  0847               	movf	___fldiv@aexp^(0+128),w
  3528  05D7  1903               	btfsc	3,2
  3529  05D8  2DF0               	goto	l1816
  3530  05D9  3001               	movlw	1
  3531  05DA                     u2075:	
  3532  05DA  35BB               	lslf	___fldiv@rem^(0+128),f
  3533  05DB  0DBC               	rlf	(___fldiv@rem+1)^(0+128),f
  3534  05DC  0DBD               	rlf	(___fldiv@rem+2)^(0+128),f
  3535  05DD  0DBE               	rlf	(___fldiv@rem+3)^(0+128),f
  3536  05DE  0B89               	decfsz	9,f
  3537  05DF  2DDA               	goto	u2075
  3538  05E0  3001               	movlw	1
  3539  05E1                     u2085:	
  3540  05E1  35B2               	lslf	___fldiv@b^(0+128),f
  3541  05E2  0DB3               	rlf	(___fldiv@b+1)^(0+128),f
  3542  05E3  0DB4               	rlf	(___fldiv@b+2)^(0+128),f
  3543  05E4  0DB5               	rlf	(___fldiv@b+3)^(0+128),f
  3544  05E5  0B89               	decfsz	9,f
  3545  05E6  2DE1               	goto	u2085
  3546  05E7  1BC5               	btfsc	(___fldiv@grs+3)^(0+128),7
  3547  05E8  1432               	bsf	___fldiv@b^(0+128),0
  3548  05E9  3001               	movlw	1
  3549  05EA                     u2105:	
  3550  05EA  35C2               	lslf	___fldiv@grs^(0+128),f
  3551  05EB  0DC3               	rlf	(___fldiv@grs+1)^(0+128),f
  3552  05EC  0DC4               	rlf	(___fldiv@grs+2)^(0+128),f
  3553  05ED  0DC5               	rlf	(___fldiv@grs+3)^(0+128),f
  3554  05EE  0B89               	decfsz	9,f
  3555  05EF  2DEA               	goto	u2105
  3556  05F0                     l1816:	
  3557  05F0  0831               	movf	(___fldiv@a+3)^(0+128),w
  3558  05F1  023E               	subwf	(___fldiv@rem+3)^(0+128),w
  3559  05F2  1D03               	skipz
  3560  05F3  2DFE               	goto	u2115
  3561  05F4  0830               	movf	(___fldiv@a+2)^(0+128),w
  3562  05F5  023D               	subwf	(___fldiv@rem+2)^(0+128),w
  3563  05F6  1D03               	skipz
  3564  05F7  2DFE               	goto	u2115
  3565  05F8  082F               	movf	(___fldiv@a+1)^(0+128),w
  3566  05F9  023C               	subwf	(___fldiv@rem+1)^(0+128),w
  3567  05FA  1D03               	skipz
  3568  05FB  2DFE               	goto	u2115
  3569  05FC  082E               	movf	___fldiv@a^(0+128),w
  3570  05FD  023B               	subwf	___fldiv@rem^(0+128),w
  3571  05FE                     u2115:	
  3572  05FE  1C03               	skipc
  3573  05FF  2E09               	goto	l1822
  3574  0600  1745               	bsf	(___fldiv@grs^(0+128)+3),6
  3575  0601  082E               	movf	___fldiv@a^(0+128),w
  3576  0602  02BB               	subwf	___fldiv@rem^(0+128),f
  3577  0603  082F               	movf	(___fldiv@a+1)^(0+128),w
  3578  0604  3BBC               	subwfb	(___fldiv@rem+1)^(0+128),f
  3579  0605  0830               	movf	(___fldiv@a+2)^(0+128),w
  3580  0606  3BBD               	subwfb	(___fldiv@rem+2)^(0+128),f
  3581  0607  0831               	movf	(___fldiv@a+3)^(0+128),w
  3582  0608  3BBE               	subwfb	(___fldiv@rem+3)^(0+128),f
  3583  0609                     l1822:	
  3584  0609  3001               	movlw	1
  3585  060A  00B6               	movwf	??___fldiv^(0+128)
  3586  060B  0836               	movf	??___fldiv^(0+128),w
  3587  060C  07C7               	addwf	___fldiv@aexp^(0+128),f
  3588  060D  2DD2               	goto	l1824
  3589  060E                     l1826:	
  3590  060E  083E               	movf	(___fldiv@rem+3)^(0+128),w
  3591  060F  043D               	iorwf	(___fldiv@rem+2)^(0+128),w
  3592  0610  043C               	iorwf	(___fldiv@rem+1)^(0+128),w
  3593  0611  043B               	iorwf	___fldiv@rem^(0+128),w
  3594  0612  1D03               	btfss	3,2
  3595  0613  1442               	bsf	___fldiv@grs^(0+128),0
  3596  0614                     l1840:	
  3597  0614  1BB4               	btfsc	(___fldiv@b+2)^(0+128),7
  3598  0615  2E2B               	goto	l1842
  3599  0616  3001               	movlw	1
  3600  0617                     u2145:	
  3601  0617  35B2               	lslf	___fldiv@b^(0+128),f
  3602  0618  0DB3               	rlf	(___fldiv@b+1)^(0+128),f
  3603  0619  0DB4               	rlf	(___fldiv@b+2)^(0+128),f
  3604  061A  0DB5               	rlf	(___fldiv@b+3)^(0+128),f
  3605  061B  0B89               	decfsz	9,f
  3606  061C  2E17               	goto	u2145
  3607  061D  1BC5               	btfsc	(___fldiv@grs+3)^(0+128),7
  3608  061E  1432               	bsf	___fldiv@b^(0+128),0
  3609  061F  3001               	movlw	1
  3610  0620                     u2165:	
  3611  0620  35C2               	lslf	___fldiv@grs^(0+128),f
  3612  0621  0DC3               	rlf	(___fldiv@grs+1)^(0+128),f
  3613  0622  0DC4               	rlf	(___fldiv@grs+2)^(0+128),f
  3614  0623  0DC5               	rlf	(___fldiv@grs+3)^(0+128),f
  3615  0624  0B89               	decfsz	9,f
  3616  0625  2E20               	goto	u2165
  3617  0626  30FF               	movlw	255
  3618  0627  07C0               	addwf	___fldiv@new_exp^(0+128),f
  3619  0628  30FF               	movlw	255
  3620  0629  3DC1               	addwfc	(___fldiv@new_exp+1)^(0+128),f
  3621  062A  2E14               	goto	l1840
  3622  062B                     l1842:	
  3623  062B  01C7               	clrf	___fldiv@aexp^(0+128)
  3624  062C  1FC5               	btfss	(___fldiv@grs+3)^(0+128),7
  3625  062D  2E44               	goto	l1852
  3626  062E  30FF               	movlw	255
  3627  062F  0542               	andwf	___fldiv@grs^(0+128),w
  3628  0630  00B6               	movwf	??___fldiv^(0+128)
  3629  0631  30FF               	movlw	255
  3630  0632  0543               	andwf	(___fldiv@grs+1)^(0+128),w
  3631  0633  00B7               	movwf	(??___fldiv^(0+128)+1)
  3632  0634  30FF               	movlw	255
  3633  0635  0544               	andwf	(___fldiv@grs+2)^(0+128),w
  3634  0636  00B8               	movwf	(??___fldiv^(0+128)+2)
  3635  0637  307F               	movlw	127
  3636  0638  0545               	andwf	(___fldiv@grs+3)^(0+128),w
  3637  0639  00B9               	movwf	(??___fldiv^(0+128)+3)
  3638  063A  0839               	movf	(??___fldiv+3)^(0+128),w
  3639  063B  0438               	iorwf	(??___fldiv+2)^(0+128),w
  3640  063C  0437               	iorwf	(??___fldiv+1)^(0+128),w
  3641  063D  0436               	iorwf	??___fldiv^(0+128),w
  3642  063E  1903               	skipnz
  3643  063F  1832               	btfsc	___fldiv@b^(0+128),0
  3644  0640  2E42               	goto	l1848
  3645  0641  2E44               	goto	l1852
  3646  0642                     l1848:	
  3647  0642  01C7               	clrf	___fldiv@aexp^(0+128)
  3648  0643  0AC7               	incf	___fldiv@aexp^(0+128),f
  3649  0644                     l1852:	
  3650  0644  0847               	movf	___fldiv@aexp^(0+128),w
  3651  0645  1903               	btfsc	3,2
  3652  0646  2E6D               	goto	l1862
  3653  0647  3001               	movlw	1
  3654  0648  07B2               	addwf	___fldiv@b^(0+128),f
  3655  0649  3000               	movlw	0
  3656  064A  3DB3               	addwfc	(___fldiv@b+1)^(0+128),f
  3657  064B  3000               	movlw	0
  3658  064C  3DB4               	addwfc	(___fldiv@b+2)^(0+128),f
  3659  064D  3000               	movlw	0
  3660  064E  3DB5               	addwfc	(___fldiv@b+3)^(0+128),f
  3661  064F  1C35               	btfss	(___fldiv@b+3)^(0+128),0
  3662  0650  2E6D               	goto	l1862
  3663  0651  0832               	movf	___fldiv@b^(0+128),w
  3664  0652  00B6               	movwf	??___fldiv^(0+128)
  3665  0653  0833               	movf	(___fldiv@b+1)^(0+128),w
  3666  0654  00B7               	movwf	(??___fldiv^(0+128)+1)
  3667  0655  0834               	movf	(___fldiv@b+2)^(0+128),w
  3668  0656  00B8               	movwf	(??___fldiv^(0+128)+2)
  3669  0657  0835               	movf	(___fldiv@b+3)^(0+128),w
  3670  0658  00B9               	movwf	(??___fldiv^(0+128)+3)
  3671  0659  3001               	movlw	1
  3672  065A  00BA               	movwf	(??___fldiv+4)^(0+128)
  3673  065B                     u2235:	
  3674  065B  37B9               	asrf	(??___fldiv^(0+128)+3),f
  3675  065C  0CB8               	rrf	(??___fldiv^(0+128)+2),f
  3676  065D  0CB7               	rrf	(??___fldiv^(0+128)+1),f
  3677  065E  0CB6               	rrf	??___fldiv^(0+128),f
  3678  065F  0BBA               	decfsz	(??___fldiv+4)^(0+128),f
  3679  0660  2E5B               	goto	u2235
  3680  0661  0839               	movf	(??___fldiv+3)^(0+128),w
  3681  0662  00B5               	movwf	(___fldiv@b+3)^(0+128)
  3682  0663  0838               	movf	(??___fldiv+2)^(0+128),w
  3683  0664  00B4               	movwf	(___fldiv@b+2)^(0+128)
  3684  0665  0837               	movf	(??___fldiv+1)^(0+128),w
  3685  0666  00B3               	movwf	(___fldiv@b+1)^(0+128)
  3686  0667  0836               	movf	??___fldiv^(0+128),w
  3687  0668  00B2               	movwf	___fldiv@b^(0+128)
  3688  0669  3001               	movlw	1
  3689  066A  07C0               	addwf	___fldiv@new_exp^(0+128),f
  3690  066B  3000               	movlw	0
  3691  066C  3DC1               	addwfc	(___fldiv@new_exp+1)^(0+128),f
  3692  066D                     l1862:	
  3693  066D  0841               	movf	(___fldiv@new_exp+1)^(0+128),w
  3694  066E  3A80               	xorlw	128
  3695  066F  00B6               	movwf	??___fldiv^(0+128)
  3696  0670  3080               	movlw	128
  3697  0671  0236               	subwf	??___fldiv^(0+128),w
  3698  0672  1D03               	skipz
  3699  0673  2E76               	goto	u2245
  3700  0674  30FF               	movlw	255
  3701  0675  0240               	subwf	___fldiv@new_exp^(0+128),w
  3702  0676                     u2245:	
  3703  0676  1C03               	skipc
  3704  0677  2E85               	goto	l630
  3705  0678  30FF               	movlw	255
  3706  0679  0141               	movlb	1	; select bank1
  3707  067A  00C0               	movwf	___fldiv@new_exp^(0+128)
  3708  067B  3000               	movlw	0
  3709  067C  00C1               	movwf	(___fldiv@new_exp^(0+128)+1)
  3710  067D  3000               	movlw	0
  3711  067E  00B5               	movwf	(___fldiv@b+3)^(0+128)
  3712  067F  3000               	movlw	0
  3713  0680  00B4               	movwf	(___fldiv@b+2)^(0+128)
  3714  0681  3000               	movlw	0
  3715  0682  00B3               	movwf	(___fldiv@b+1)^(0+128)
  3716  0683  3000               	movlw	0
  3717  0684  00B2               	movwf	___fldiv@b^(0+128)
  3718  0685                     l630:	
  3719  0685  0141               	movlb	1	; select bank1
  3720  0686  0841               	movf	(___fldiv@new_exp+1)^(0+128),w
  3721  0687  3A80               	xorlw	128
  3722  0688  00B6               	movwf	??___fldiv^(0+128)
  3723  0689  3080               	movlw	128
  3724  068A  0236               	subwf	??___fldiv^(0+128),w
  3725  068B  1D03               	skipz
  3726  068C  2E8F               	goto	u2255
  3727  068D  3001               	movlw	1
  3728  068E  0240               	subwf	___fldiv@new_exp^(0+128),w
  3729  068F                     u2255:	
  3730  068F  1803               	skipnc
  3731  0690  2E9D               	goto	l631
  3732  0691  0141               	movlb	1	; select bank1
  3733  0692  01C0               	clrf	___fldiv@new_exp^(0+128)
  3734  0693  01C1               	clrf	(___fldiv@new_exp+1)^(0+128)
  3735  0694  3000               	movlw	0
  3736  0695  00B5               	movwf	(___fldiv@b+3)^(0+128)
  3737  0696  3000               	movlw	0
  3738  0697  00B4               	movwf	(___fldiv@b+2)^(0+128)
  3739  0698  3000               	movlw	0
  3740  0699  00B3               	movwf	(___fldiv@b+1)^(0+128)
  3741  069A  3000               	movlw	0
  3742  069B  00B2               	movwf	___fldiv@b^(0+128)
  3743  069C  01BF               	clrf	___fldiv@sign^(0+128)
  3744  069D                     l631:	
  3745  069D  0141               	movlb	1	; select bank1
  3746  069E  0840               	movf	___fldiv@new_exp^(0+128),w
  3747  069F  00B6               	movwf	??___fldiv^(0+128)
  3748  06A0  0836               	movf	??___fldiv^(0+128),w
  3749  06A1  00C6               	movwf	___fldiv@bexp^(0+128)
  3750  06A2  1C46               	btfss	___fldiv@bexp^(0+128),0
  3751  06A3  2EA6               	goto	l1876
  3752  06A4  17B4               	bsf	(___fldiv@b^(0+128)+2),7
  3753  06A5  2EAA               	goto	l633
  3754  06A6                     l1876:	
  3755  06A6  307F               	movlw	127
  3756  06A7  00B6               	movwf	??___fldiv^(0+128)
  3757  06A8  0836               	movf	??___fldiv^(0+128),w
  3758  06A9  05B4               	andwf	(___fldiv@b^(0+128)+2),f
  3759  06AA                     l633:	
  3760  06AA  3646               	lsrf	___fldiv@bexp^(0+128),w
  3761  06AB  00B6               	movwf	??___fldiv^(0+128)
  3762  06AC  0836               	movf	??___fldiv^(0+128),w
  3763  06AD  00B5               	movwf	(___fldiv@b^(0+128)+3)
  3764  06AE  2D90               	goto	L1
  3765  06AF                     __end_of___fldiv:	
  3766                           
  3767                           	psect	text12
  3768  0B8E                     __ptext12:	
  3769 ;; *************** function ___flge *****************
  3770 ;; Defined at:
  3771 ;;		line 4 in file "C:\Program Files (x86)\Microchip\xc8\v2.05\pic\sources\c99\common\flge.c"
  3772 ;; Parameters:    Size  Location     Type
  3773 ;;  ff1             4    0[BANK1 ] unsigned char 
  3774 ;;  ff2             4    4[BANK1 ] unsigned char 
  3775 ;; Auto vars:     Size  Location     Type
  3776 ;;		None
  3777 ;; Return value:  Size  Location     Type
  3778 ;;		None               void
  3779 ;; Registers used:
  3780 ;;		wreg, status,2, status,0
  3781 ;; Tracked objects:
  3782 ;;		On entry : 0/0
  3783 ;;		On exit  : 0/0
  3784 ;;		Unchanged: 0/0
  3785 ;; Data sizes:     COMMON   BANK0   BANK1   BANK2   BANK3   BANK4   BANK5   BANK6
  3786 ;;      Params:         0       0       8       0       0       0       0       0
  3787 ;;      Locals:         0       0       0       0       0       0       0       0
  3788 ;;      Temps:          0       0       4       0       0       0       0       0
  3789 ;;      Totals:         0       0      12       0       0       0       0       0
  3790 ;;Total ram usage:       12 bytes
  3791 ;; Hardware stack levels used:    1
  3792 ;; Hardware stack levels required when called:    3
  3793 ;; This function calls:
  3794 ;;		Nothing
  3795 ;; This function is called by:
  3796 ;;		_temperatureCheck
  3797 ;; This function uses a non-reentrant model
  3798 ;;
  3799                           
  3800                           
  3801                           ;psect for function ___flge
  3802  0B8E                     ___flge:	
  3803                           
  3804                           ;incstack = 0
  3805                           ; Regs used in ___flge: [wreg+status,2+status,0]
  3806  0B8E  3000               	movlw	0
  3807  0B8F  0141               	movlb	1	; select bank1
  3808  0B90  0520               	andwf	___flge@ff1^(0+128),w
  3809  0B91  00A8               	movwf	??___flge^(0+128)
  3810  0B92  3000               	movlw	0
  3811  0B93  0521               	andwf	(___flge@ff1+1)^(0+128),w
  3812  0B94  00A9               	movwf	(??___flge^(0+128)+1)
  3813  0B95  3080               	movlw	128
  3814  0B96  0522               	andwf	(___flge@ff1+2)^(0+128),w
  3815  0B97  00AA               	movwf	(??___flge^(0+128)+2)
  3816  0B98  307F               	movlw	127
  3817  0B99  0523               	andwf	(___flge@ff1+3)^(0+128),w
  3818  0B9A  00AB               	movwf	(??___flge^(0+128)+3)
  3819  0B9B  082B               	movf	(??___flge+3)^(0+128),w
  3820  0B9C  042A               	iorwf	(??___flge+2)^(0+128),w
  3821  0B9D  0429               	iorwf	(??___flge+1)^(0+128),w
  3822  0B9E  0428               	iorwf	??___flge^(0+128),w
  3823  0B9F  1D03               	skipz
  3824  0BA0  2BA9               	goto	l430
  3825  0BA1  3000               	movlw	0
  3826  0BA2  00A3               	movwf	(___flge@ff1+3)^(0+128)
  3827  0BA3  3000               	movlw	0
  3828  0BA4  00A2               	movwf	(___flge@ff1+2)^(0+128)
  3829  0BA5  3000               	movlw	0
  3830  0BA6  00A1               	movwf	(___flge@ff1+1)^(0+128)
  3831  0BA7  3000               	movlw	0
  3832  0BA8  00A0               	movwf	___flge@ff1^(0+128)
  3833  0BA9                     l430:	
  3834  0BA9  3000               	movlw	0
  3835  0BAA  0524               	andwf	___flge@ff2^(0+128),w
  3836  0BAB  00A8               	movwf	??___flge^(0+128)
  3837  0BAC  3000               	movlw	0
  3838  0BAD  0525               	andwf	(___flge@ff2+1)^(0+128),w
  3839  0BAE  00A9               	movwf	(??___flge^(0+128)+1)
  3840  0BAF  3080               	movlw	128
  3841  0BB0  0526               	andwf	(___flge@ff2+2)^(0+128),w
  3842  0BB1  00AA               	movwf	(??___flge^(0+128)+2)
  3843  0BB2  307F               	movlw	127
  3844  0BB3  0527               	andwf	(___flge@ff2+3)^(0+128),w
  3845  0BB4  00AB               	movwf	(??___flge^(0+128)+3)
  3846  0BB5  082B               	movf	(??___flge+3)^(0+128),w
  3847  0BB6  042A               	iorwf	(??___flge+2)^(0+128),w
  3848  0BB7  0429               	iorwf	(??___flge+1)^(0+128),w
  3849  0BB8  0428               	iorwf	??___flge^(0+128),w
  3850  0BB9  1D03               	skipz
  3851  0BBA  2BC3               	goto	l2118
  3852  0BBB  3000               	movlw	0
  3853  0BBC  00A7               	movwf	(___flge@ff2+3)^(0+128)
  3854  0BBD  3000               	movlw	0
  3855  0BBE  00A6               	movwf	(___flge@ff2+2)^(0+128)
  3856  0BBF  3000               	movlw	0
  3857  0BC0  00A5               	movwf	(___flge@ff2+1)^(0+128)
  3858  0BC1  3000               	movlw	0
  3859  0BC2  00A4               	movwf	___flge@ff2^(0+128)
  3860  0BC3                     l2118:	
  3861  0BC3  1FA3               	btfss	(___flge@ff1+3)^(0+128),7
  3862  0BC4  2BDD               	goto	l2122
  3863  0BC5  3000               	movlw	0
  3864  0BC6  00A8               	movwf	??___flge^(0+128)
  3865  0BC7  3000               	movlw	0
  3866  0BC8  00A9               	movwf	(??___flge^(0+128)+1)
  3867  0BC9  3000               	movlw	0
  3868  0BCA  00AA               	movwf	(??___flge^(0+128)+2)
  3869  0BCB  3080               	movlw	128
  3870  0BCC  00AB               	movwf	(??___flge^(0+128)+3)
  3871  0BCD  0820               	movf	___flge@ff1^(0+128),w
  3872  0BCE  02A8               	subwf	??___flge^(0+128),f
  3873  0BCF  0821               	movf	(___flge@ff1+1)^(0+128),w
  3874  0BD0  3BA9               	subwfb	(??___flge^(0+128)+1),f
  3875  0BD1  0822               	movf	(___flge@ff1+2)^(0+128),w
  3876  0BD2  3BAA               	subwfb	(??___flge^(0+128)+2),f
  3877  0BD3  0823               	movf	(___flge@ff1+3)^(0+128),w
  3878  0BD4  3BAB               	subwfb	(??___flge^(0+128)+3),f
  3879  0BD5  082B               	movf	(??___flge+3)^(0+128),w
  3880  0BD6  00A3               	movwf	(___flge@ff1+3)^(0+128)
  3881  0BD7  082A               	movf	(??___flge+2)^(0+128),w
  3882  0BD8  00A2               	movwf	(___flge@ff1+2)^(0+128)
  3883  0BD9  0829               	movf	(??___flge+1)^(0+128),w
  3884  0BDA  00A1               	movwf	(___flge@ff1+1)^(0+128)
  3885  0BDB  0828               	movf	??___flge^(0+128),w
  3886  0BDC  00A0               	movwf	___flge@ff1^(0+128)
  3887  0BDD                     l2122:	
  3888  0BDD  1FA7               	btfss	(___flge@ff2+3)^(0+128),7
  3889  0BDE  2BF7               	goto	l433
  3890  0BDF  3000               	movlw	0
  3891  0BE0  00A8               	movwf	??___flge^(0+128)
  3892  0BE1  3000               	movlw	0
  3893  0BE2  00A9               	movwf	(??___flge^(0+128)+1)
  3894  0BE3  3000               	movlw	0
  3895  0BE4  00AA               	movwf	(??___flge^(0+128)+2)
  3896  0BE5  3080               	movlw	128
  3897  0BE6  00AB               	movwf	(??___flge^(0+128)+3)
  3898  0BE7  0824               	movf	___flge@ff2^(0+128),w
  3899  0BE8  02A8               	subwf	??___flge^(0+128),f
  3900  0BE9  0825               	movf	(___flge@ff2+1)^(0+128),w
  3901  0BEA  3BA9               	subwfb	(??___flge^(0+128)+1),f
  3902  0BEB  0826               	movf	(___flge@ff2+2)^(0+128),w
  3903  0BEC  3BAA               	subwfb	(??___flge^(0+128)+2),f
  3904  0BED  0827               	movf	(___flge@ff2+3)^(0+128),w
  3905  0BEE  3BAB               	subwfb	(??___flge^(0+128)+3),f
  3906  0BEF  082B               	movf	(??___flge+3)^(0+128),w
  3907  0BF0  00A7               	movwf	(___flge@ff2+3)^(0+128)
  3908  0BF1  082A               	movf	(??___flge+2)^(0+128),w
  3909  0BF2  00A6               	movwf	(___flge@ff2+2)^(0+128)
  3910  0BF3  0829               	movf	(??___flge+1)^(0+128),w
  3911  0BF4  00A5               	movwf	(___flge@ff2+1)^(0+128)
  3912  0BF5  0828               	movf	??___flge^(0+128),w
  3913  0BF6  00A4               	movwf	___flge@ff2^(0+128)
  3914  0BF7                     l433:	
  3915  0BF7  3080               	movlw	128
  3916  0BF8  06A3               	xorwf	(___flge@ff1+3)^(0+128),f
  3917  0BF9  3080               	movlw	128
  3918  0BFA  06A7               	xorwf	(___flge@ff2+3)^(0+128),f
  3919  0BFB  0827               	movf	(___flge@ff2+3)^(0+128),w
  3920  0BFC  0223               	subwf	(___flge@ff1+3)^(0+128),w
  3921  0BFD  1D03               	skipz
  3922  0BFE  0008               	return
  3923  0BFF  0826               	movf	(___flge@ff2+2)^(0+128),w
  3924  0C00  0222               	subwf	(___flge@ff1+2)^(0+128),w
  3925  0C01  1D03               	skipz
  3926  0C02  0008               	return
  3927  0C03  0825               	movf	(___flge@ff2+1)^(0+128),w
  3928  0C04  0221               	subwf	(___flge@ff1+1)^(0+128),w
  3929  0C05  1D03               	skipz
  3930  0C06  0008               	return
  3931  0C07  0824               	movf	___flge@ff2^(0+128),w
  3932  0C08  0220               	subwf	___flge@ff1^(0+128),w
  3933  0C09  0008               	return
  3934  0C0A                     __end_of___flge:	
  3935                           
  3936                           	psect	text13
  3937  0A05                     __ptext13:	
  3938 ;; *************** function _ledFaultCheck *****************
  3939 ;; Defined at:
  3940 ;;		line 356 in file "main.c"
  3941 ;; Parameters:    Size  Location     Type
  3942 ;;		None
  3943 ;; Auto vars:     Size  Location     Type
  3944 ;;		None
  3945 ;; Return value:  Size  Location     Type
  3946 ;;                  1    wreg      void 
  3947 ;; Registers used:
  3948 ;;		wreg, status,2, status,0
  3949 ;; Tracked objects:
  3950 ;;		On entry : 0/0
  3951 ;;		On exit  : 0/0
  3952 ;;		Unchanged: 0/0
  3953 ;; Data sizes:     COMMON   BANK0   BANK1   BANK2   BANK3   BANK4   BANK5   BANK6
  3954 ;;      Params:         0       0       0       0       0       0       0       0
  3955 ;;      Locals:         0       0       0       0       0       0       0       0
  3956 ;;      Temps:          0       0       1       0       0       0       0       0
  3957 ;;      Totals:         0       0       1       0       0       0       0       0
  3958 ;;Total ram usage:        1 bytes
  3959 ;; Hardware stack levels used:    1
  3960 ;; Hardware stack levels required when called:    3
  3961 ;; This function calls:
  3962 ;;		Nothing
  3963 ;; This function is called by:
  3964 ;;		_ErrHanler
  3965 ;;		_main
  3966 ;; This function uses a non-reentrant model
  3967 ;;
  3968                           
  3969                           
  3970                           ;psect for function _ledFaultCheck
  3971  0A05                     _ledFaultCheck:	
  3972                           
  3973                           ;main.c: 357:     if( (currentStatus == Normal) && (LATCbits.LATC2 == 1) && (PORTBbits.R
      +                          B0 == 0)){
  3974                           
  3975                           ;incstack = 0
  3976                           ; Regs used in _ledFaultCheck: [wreg+status,2+status,0]
  3977  0A05  0142               	movlb	2	; select bank2
  3978  0A06  0847               	movf	_currentStatus^(0+256),w
  3979  0A07  1D03               	btfss	3,2
  3980  0A08  2A19               	goto	l2178
  3981  0A09  0140               	movlb	0	; select bank0
  3982  0A0A  191A               	btfsc	26,2	;volatile
  3983  0A0B  180D               	btfsc	13,0	;volatile
  3984  0A0C  2A19               	goto	l2178
  3985                           
  3986                           ;main.c: 359:             currentStatus = Error;
  3987  0A0D  3002               	movlw	2
  3988  0A0E  0141               	movlb	1	; select bank1
  3989  0A0F  00A0               	movwf	??_ledFaultCheck^(0+128)
  3990  0A10  0820               	movf	??_ledFaultCheck^(0+128),w
  3991  0A11  0142               	movlb	2	; select bank2
  3992  0A12  00C7               	movwf	_currentStatus^(0+256)
  3993                           
  3994                           ;main.c: 360:             errReason = LEDDrvErr;
  3995  0A13  3004               	movlw	4
  3996  0A14  0141               	movlb	1	; select bank1
  3997  0A15  00A0               	movwf	??_ledFaultCheck^(0+128)
  3998  0A16  0820               	movf	??_ledFaultCheck^(0+128),w
  3999  0A17  0142               	movlb	2	; select bank2
  4000  0A18  00B8               	movwf	_errReason^(0+256)
  4001  0A19                     l2178:	
  4002                           
  4003                           ;main.c: 362:     if((currentStatus == Error) && (errReason == LEDDrvErr) &&(LATCbits.LA
      +                          TC2 == 1) && (PORTBbits.RB0 == 1)){
  4004  0A19  3002               	movlw	2
  4005  0A1A  0142               	movlb	2	; select bank2
  4006  0A1B  0647               	xorwf	_currentStatus^(0+256),w
  4007  0A1C  1D03               	btfss	3,2
  4008  0A1D  0008               	return
  4009  0A1E  3004               	movlw	4
  4010  0A1F  0638               	xorwf	_errReason^(0+256),w
  4011  0A20  1D03               	btfss	3,2
  4012  0A21  0008               	return
  4013  0A22  0140               	movlb	0	; select bank0
  4014  0A23  1D1A               	btfss	26,2	;volatile
  4015  0A24  0008               	return
  4016  0A25  1C0D               	btfss	13,0	;volatile
  4017  0A26  0008               	return
  4018                           
  4019                           ;main.c: 363:         currentStatus = Normal;
  4020  0A27  0142               	movlb	2	; select bank2
  4021  0A28  01C7               	clrf	_currentStatus^(0+256)
  4022                           
  4023                           ;main.c: 364:         errReason = NoErr;
  4024  0A29  01B8               	clrf	_errReason^(0+256)
  4025  0A2A  0008               	return
  4026  0A2B                     __end_of_ledFaultCheck:	
  4027                           
  4028                           	psect	text14
  4029  0A2B                     __ptext14:	
  4030 ;; *************** function _ErrFlush *****************
  4031 ;; Defined at:
  4032 ;;		line 319 in file "main.c"
  4033 ;; Parameters:    Size  Location     Type
  4034 ;;  count           2    0[BANK1 ] int 
  4035 ;; Auto vars:     Size  Location     Type
  4036 ;;  i               2    4[BANK1 ] int 
  4037 ;; Return value:  Size  Location     Type
  4038 ;;                  1    wreg      void 
  4039 ;; Registers used:
  4040 ;;		wreg, status,2
  4041 ;; Tracked objects:
  4042 ;;		On entry : 0/0
  4043 ;;		On exit  : 0/0
  4044 ;;		Unchanged: 0/0
  4045 ;; Data sizes:     COMMON   BANK0   BANK1   BANK2   BANK3   BANK4   BANK5   BANK6
  4046 ;;      Params:         0       0       2       0       0       0       0       0
  4047 ;;      Locals:         0       0       2       0       0       0       0       0
  4048 ;;      Temps:          0       0       2       0       0       0       0       0
  4049 ;;      Totals:         0       0       6       0       0       0       0       0
  4050 ;;Total ram usage:        6 bytes
  4051 ;; Hardware stack levels used:    1
  4052 ;; Hardware stack levels required when called:    3
  4053 ;; This function calls:
  4054 ;;		Nothing
  4055 ;; This function is called by:
  4056 ;;		_ErrHanler
  4057 ;; This function uses a non-reentrant model
  4058 ;;
  4059                           
  4060                           
  4061                           ;psect for function _ErrFlush
  4062  0A2B                     _ErrFlush:	
  4063                           
  4064                           ;main.c: 320:     TRISCbits.TRISC0 = 1;
  4065                           
  4066                           ;incstack = 0
  4067                           ; Regs used in _ErrFlush: [wreg+status,2]
  4068  0A2B  0140               	movlb	0	; select bank0
  4069  0A2C  1414               	bsf	20,0	;volatile
  4070                           
  4071                           ;main.c: 321:      _delay((unsigned long)((1000)*(32000000/4000.0)));
  4072  0A2D  3029               	movlw	41
  4073  0A2E  0141               	movlb	1	; select bank1
  4074  0A2F  00A3               	movwf	(??_ErrFlush^(0+128)+1)
  4075  0A30  3096               	movlw	150
  4076  0A31  00A2               	movwf	??_ErrFlush^(0+128)
  4077  0A32  307F               	movlw	127
  4078  0A33                     u3957:	
  4079  0A33  0B89               	decfsz	9,f
  4080  0A34  2A33               	goto	u3957
  4081  0A35  0BA2               	decfsz	??_ErrFlush^(0+128),f
  4082  0A36  2A33               	goto	u3957
  4083  0A37  0BA3               	decfsz	(??_ErrFlush^(0+128)+1),f
  4084  0A38  2A33               	goto	u3957
  4085                           
  4086                           ;main.c: 322:     LATCbits.LATC0 = 1;
  4087  0A39  0140               	movlb	0	; select bank0
  4088  0A3A  141A               	bsf	26,0	;volatile
  4089                           
  4090                           ;main.c: 323:     for(int i=0;i<count; i++){
  4091  0A3B  0141               	movlb	1	; select bank1
  4092  0A3C  01A4               	clrf	ErrFlush@i^(0+128)
  4093  0A3D  01A5               	clrf	(ErrFlush@i+1)^(0+128)
  4094  0A3E                     l117:	
  4095  0A3E  0825               	movf	(ErrFlush@i+1)^(0+128),w
  4096  0A3F  3A80               	xorlw	128
  4097  0A40  00A2               	movwf	??_ErrFlush^(0+128)
  4098  0A41  0821               	movf	(ErrFlush@count+1)^(0+128),w
  4099  0A42  3A80               	xorlw	128
  4100  0A43  0222               	subwf	??_ErrFlush^(0+128),w
  4101  0A44  1D03               	skipz
  4102  0A45  2A48               	goto	u2755
  4103  0A46  0820               	movf	ErrFlush@count^(0+128),w
  4104  0A47  0224               	subwf	ErrFlush@i^(0+128),w
  4105  0A48                     u2755:	
  4106  0A48  1803               	btfsc	3,0
  4107  0A49  0008               	return
  4108                           
  4109                           ;main.c: 324:         TRISCbits.TRISC0 = 0;
  4110  0A4A  0140               	movlb	0	; select bank0
  4111  0A4B  1014               	bcf	20,0	;volatile
  4112                           
  4113                           ;main.c: 325:         _delay((unsigned long)((300)*(32000000/4000.0)));
  4114  0A4C  300D               	movlw	13
  4115  0A4D  0141               	movlb	1	; select bank1
  4116  0A4E  00A3               	movwf	(??_ErrFlush^(0+128)+1)
  4117  0A4F  302D               	movlw	45
  4118  0A50  00A2               	movwf	??_ErrFlush^(0+128)
  4119  0A51  30D7               	movlw	215
  4120  0A52                     u3967:	
  4121  0A52  0B89               	decfsz	9,f
  4122  0A53  2A52               	goto	u3967
  4123  0A54  0BA2               	decfsz	??_ErrFlush^(0+128),f
  4124  0A55  2A52               	goto	u3967
  4125  0A56  0BA3               	decfsz	(??_ErrFlush^(0+128)+1),f
  4126  0A57  2A52               	goto	u3967
  4127  0A58  3200               	nop2
  4128                           
  4129                           ;main.c: 326:         TRISCbits.TRISC0 = 1;
  4130  0A59  0140               	movlb	0	; select bank0
  4131  0A5A  1414               	bsf	20,0	;volatile
  4132                           
  4133                           ;main.c: 327:         _delay((unsigned long)((300)*(32000000/4000.0)));
  4134  0A5B  300D               	movlw	13
  4135  0A5C  0141               	movlb	1	; select bank1
  4136  0A5D  00A3               	movwf	(??_ErrFlush^(0+128)+1)
  4137  0A5E  302D               	movlw	45
  4138  0A5F  00A2               	movwf	??_ErrFlush^(0+128)
  4139  0A60  30D7               	movlw	215
  4140  0A61                     u3977:	
  4141  0A61  0B89               	decfsz	9,f
  4142  0A62  2A61               	goto	u3977
  4143  0A63  0BA2               	decfsz	??_ErrFlush^(0+128),f
  4144  0A64  2A61               	goto	u3977
  4145  0A65  0BA3               	decfsz	(??_ErrFlush^(0+128)+1),f
  4146  0A66  2A61               	goto	u3977
  4147  0A67  3200               	nop2
  4148                           
  4149                           ;main.c: 328:     }
  4150  0A68  3001               	movlw	1
  4151  0A69  0141               	movlb	1	; select bank1
  4152  0A6A  07A4               	addwf	ErrFlush@i^(0+128),f
  4153  0A6B  3000               	movlw	0
  4154  0A6C  3DA5               	addwfc	(ErrFlush@i+1)^(0+128),f
  4155  0A6D  2A3E               	goto	l117
  4156  0A6E                     __end_of_ErrFlush:	
  4157                           
  4158                           	psect	intentry
  4159  0004                     __pintentry:	
  4160 ;; *************** function _int_handler *****************
  4161 ;; Defined at:
  4162 ;;		line 404 in file "main.c"
  4163 ;; Parameters:    Size  Location     Type
  4164 ;;		None
  4165 ;; Auto vars:     Size  Location     Type
  4166 ;;  voltage         4   54[BANK0 ] float 
  4167 ;; Return value:  Size  Location     Type
  4168 ;;                  1    wreg      void 
  4169 ;; Registers used:
  4170 ;;		wreg, status,2, status,0, pclath, cstack
  4171 ;; Tracked objects:
  4172 ;;		On entry : 0/0
  4173 ;;		On exit  : 0/0
  4174 ;;		Unchanged: 0/0
  4175 ;; Data sizes:     COMMON   BANK0   BANK1   BANK2   BANK3   BANK4   BANK5   BANK6
  4176 ;;      Params:         0       0       0       0       0       0       0       0
  4177 ;;      Locals:         0       4       0       0       0       0       0       0
  4178 ;;      Temps:          0       2       0       0       0       0       0       0
  4179 ;;      Totals:         0       6       0       0       0       0       0       0
  4180 ;;Total ram usage:        6 bytes
  4181 ;; Hardware stack levels used:    1
  4182 ;; Hardware stack levels required when called:    2
  4183 ;; This function calls:
  4184 ;;		i1___fldiv
  4185 ;;		i1___flge
  4186 ;;		i1___flmul
  4187 ;;		i1___xxtofl
  4188 ;; This function is called by:
  4189 ;;		Interrupt level 1
  4190 ;; This function uses a non-reentrant model
  4191 ;;
  4192                           
  4193  0004                     _int_handler:	
  4194                           
  4195                           ;incstack = 0
  4196  0004  147E               	bsf	126,0	;set compiler interrupt flag (level 1)
  4197                           
  4198                           ; Regs used in _int_handler: [wreg+status,2+status,0+pclath+cstack]
  4199  0005  3180               	pagesel	$
  4200                           
  4201                           ;main.c: 407:     if(PIE0bits.IOCIE && IOCAF7 ){
  4202  0006  014E               	movlb	14	; select bank14
  4203  0007  1E16               	btfss	22,4	;volatile
  4204  0008  283A               	goto	i1l154
  4205  0009  017E               	movlb	62	; select bank62
  4206  000A  1FBF               	btfss	63,7	;volatile
  4207  000B  283A               	goto	i1l154
  4208                           
  4209                           ;main.c: 408:          IOCAF7 = 0;
  4210  000C  13BF               	bcf	63,7	;volatile
  4211                           
  4212                           ;main.c: 409:          if(currentStatus == Normal){
  4213  000D  0142               	movlb	2	; select bank2
  4214  000E  0847               	movf	_currentStatus^(0+256),w
  4215  000F  1D03               	btfss	3,2
  4216  0010  283A               	goto	i1l154
  4217                           
  4218                           ;main.c: 411:          _delay((unsigned long)((150)*(32000000/4000.0)));
  4219  0011  3007               	movlw	7
  4220  0012  0140               	movlb	0	; select bank0
  4221  0013  00D5               	movwf	??_int_handler+1
  4222  0014  3017               	movlw	23
  4223  0015  00D4               	movwf	??_int_handler
  4224  0016  306A               	movlw	106
  4225  0017                     u398_27:	
  4226  0017  0B89               	decfsz	9,f
  4227  0018  2817               	goto	u398_27
  4228  0019  0BD4               	decfsz	??_int_handler,f
  4229  001A  2817               	goto	u398_27
  4230  001B  0BD5               	decfsz	??_int_handler+1,f
  4231  001C  2817               	goto	u398_27
  4232  001D  0000               	nop
  4233                           
  4234                           ;main.c: 412:          if(PORTAbits.RA7 == 0){
  4235  001E  0140               	movlb	0	; select bank0
  4236  001F  1B8C               	btfsc	12,7	;volatile
  4237  0020  283A               	goto	i1l154
  4238                           
  4239                           ;main.c: 414:              LATCbits.LATC2 = ~LATCbits.LATC2;
  4240  0021  1003               	clrc
  4241  0022  1D1A               	btfss	26,2	;volatile
  4242  0023  1403               	setc
  4243  0024  1C03               	btfss	3,0
  4244  0025  2829               	goto	u374_20
  4245  0026  0140               	movlb	0	; select bank0
  4246  0027  151A               	bsf	26,2	;volatile
  4247  0028  282B               	goto	u375_24
  4248  0029                     u374_20:	
  4249  0029  0140               	movlb	0	; select bank0
  4250  002A  111A               	bcf	26,2	;volatile
  4251  002B                     u375_24:	
  4252                           
  4253                           ;main.c: 415:              LATCbits.LATC5 = ~LATCbits.LATC5;
  4254  002B  1003               	clrc
  4255  002C  1E9A               	btfss	26,5	;volatile
  4256  002D  1403               	setc
  4257  002E  1C03               	btfss	3,0
  4258  002F  2833               	goto	u376_20
  4259  0030  0140               	movlb	0	; select bank0
  4260  0031  169A               	bsf	26,5	;volatile
  4261  0032  2835               	goto	i1l2618
  4262  0033                     u376_20:	
  4263  0033  0140               	movlb	0	; select bank0
  4264  0034  129A               	bcf	26,5	;volatile
  4265  0035                     i1l2618:	
  4266                           
  4267                           ;main.c: 418:              if(LATCbits.LATC2 == 1){
  4268  0035  1D1A               	btfss	26,2	;volatile
  4269  0036  2839               	goto	i1l157
  4270                           
  4271                           ;main.c: 419:                  LATCbits.LATC7 = 1;
  4272  0037  179A               	bsf	26,7	;volatile
  4273                           
  4274                           ;main.c: 420:              }else {
  4275  0038  283A               	goto	i1l154
  4276  0039                     i1l157:	
  4277                           
  4278                           ;main.c: 421:                  LATCbits.LATC7 = 0;
  4279  0039  139A               	bcf	26,7	;volatile
  4280  003A                     i1l154:	
  4281                           ;main.c: 440:     }
  4282                           
  4283                           
  4284                           ;main.c: 443:     if(TMR0IE && TMR0IF){
  4285  003A  014E               	movlb	14	; select bank14
  4286  003B  1A96               	btfsc	22,5	;volatile
  4287  003C  1E8C               	btfss	12,5	;volatile
  4288  003D  2861               	goto	i1l2632
  4289                           
  4290                           ;main.c: 445:         TMR0IF = 0;
  4291  003E  128C               	bcf	12,5	;volatile
  4292                           
  4293                           ;main.c: 446:         if(timerCounter <= 152){
  4294  003F  0140               	movlb	0	; select bank0
  4295  0040  085D               	movf	_timerCounter+3,w
  4296  0041  1D03               	btfss	3,2
  4297  0042  2856               	goto	i1l160
  4298  0043  085C               	movf	_timerCounter+2,w
  4299  0044  1D03               	btfss	3,2
  4300  0045  2856               	goto	i1l160
  4301  0046  085B               	movf	_timerCounter+1,w
  4302  0047  1D03               	btfss	3,2
  4303  0048  2856               	goto	i1l160
  4304  0049  3099               	movlw	153
  4305  004A  025A               	subwf	_timerCounter,w
  4306  004B  1803               	btfsc	3,0
  4307  004C  2856               	goto	i1l160
  4308                           
  4309                           ;main.c: 448:             timerCounter++;
  4310  004D  3001               	movlw	1
  4311  004E  07DA               	addwf	_timerCounter,f
  4312  004F  3000               	movlw	0
  4313  0050  3DDB               	addwfc	_timerCounter+1,f
  4314  0051  3000               	movlw	0
  4315  0052  3DDC               	addwfc	_timerCounter+2,f
  4316  0053  3000               	movlw	0
  4317  0054  3DDD               	addwfc	_timerCounter+3,f
  4318                           
  4319                           ;main.c: 449:         }
  4320  0055  2861               	goto	i1l2632
  4321  0056                     i1l160:	
  4322                           ;main.c: 450:         else{
  4323                           
  4324                           
  4325                           ;main.c: 451:             TMR0IE = 0;
  4326  0056  014E               	movlb	14	; select bank14
  4327  0057  1296               	bcf	22,5	;volatile
  4328                           
  4329                           ;main.c: 452:             timerCounter = 0;
  4330  0058  3000               	movlw	0
  4331  0059  0140               	movlb	0	; select bank0
  4332  005A  00DD               	movwf	_timerCounter+3
  4333  005B  3000               	movlw	0
  4334  005C  00DC               	movwf	_timerCounter+2
  4335  005D  3000               	movlw	0
  4336  005E  00DB               	movwf	_timerCounter+1
  4337  005F  3000               	movlw	0
  4338  0060  00DA               	movwf	_timerCounter
  4339  0061                     i1l2632:	
  4340                           
  4341                           ;main.c: 458:     if(PIE1bits.ADIE && PIR1bits.ADIF){
  4342  0061  014E               	movlb	14	; select bank14
  4343  0062  1817               	btfsc	23,0	;volatile
  4344  0063  1C0D               	btfss	13,0	;volatile
  4345  0064  28C9               	goto	i1l165
  4346                           
  4347                           ;main.c: 460:         PIR1bits.ADIF = 0;
  4348  0065  100D               	bcf	13,0	;volatile
  4349                           
  4350                           ;main.c: 461:         float voltage = ((float)ADRES/1023)*DIA_Table.FVRA1X;
  4351  0066  0142               	movlb	2	; select bank2
  4352  0067  0824               	movf	(_DIA_Table^(0+256)+4),w
  4353  0068  00F0               	movwf	i1___xxtofl@val
  4354  0069  0825               	movf	((_DIA_Table+1)^(0+256)+4),w
  4355  006A  00F1               	movwf	i1___xxtofl@val+1
  4356  006B  01F2               	clrf	i1___xxtofl@val+2
  4357  006C  01F3               	clrf	i1___xxtofl@val+3
  4358  006D  3000               	movlw	0
  4359  006E  318C  248A  3180   	fcall	i1___xxtofl
  4360  0071  0873               	movf	?i1___xxtofl+3,w
  4361  0072  0140               	movlb	0	; select bank0
  4362  0073  00BD               	movwf	i1___flmul@b+3
  4363  0074  0872               	movf	?i1___xxtofl+2,w
  4364  0075  00BC               	movwf	i1___flmul@b+2
  4365  0076  0871               	movf	?i1___xxtofl+1,w
  4366  0077  00BB               	movwf	i1___flmul@b+1
  4367  0078  0870               	movf	?i1___xxtofl,w
  4368  0079  00BA               	movwf	i1___flmul@b
  4369  007A  3044               	movlw	68
  4370  007B  00A3               	movwf	i1___fldiv@a+3
  4371  007C  307F               	movlw	127
  4372  007D  00A2               	movwf	i1___fldiv@a+2
  4373  007E  30C0               	movlw	192
  4374  007F  00A1               	movwf	i1___fldiv@a+1
  4375  0080  3000               	movlw	0
  4376  0081  00A0               	movwf	i1___fldiv@a
  4377  0082  0141               	movlb	1	; select bank1
  4378  0083  081B               	movf	27,w	;volatile
  4379  0084  00F0               	movwf	i1___xxtofl@val
  4380  0085  081C               	movf	28,w	;volatile
  4381  0086  00F1               	movwf	i1___xxtofl@val+1
  4382  0087  01F2               	clrf	i1___xxtofl@val+2
  4383  0088  01F3               	clrf	i1___xxtofl@val+3
  4384  0089  3000               	movlw	0
  4385  008A  318C  248A  3180   	fcall	i1___xxtofl
  4386  008D  0873               	movf	?i1___xxtofl+3,w
  4387  008E  0140               	movlb	0	; select bank0
  4388  008F  00A7               	movwf	i1___fldiv@b+3
  4389  0090  0872               	movf	?i1___xxtofl+2,w
  4390  0091  00A6               	movwf	i1___fldiv@b+2
  4391  0092  0871               	movf	?i1___xxtofl+1,w
  4392  0093  00A5               	movwf	i1___fldiv@b+1
  4393  0094  0870               	movf	?i1___xxtofl,w
  4394  0095  00A4               	movwf	i1___fldiv@b
  4395  0096  318E  2686  3180   	fcall	i1___fldiv
  4396  0099  0140               	movlb	0	; select bank0
  4397  009A  0823               	movf	?i1___fldiv+3,w
  4398  009B  00C1               	movwf	i1___flmul@a+3
  4399  009C  0822               	movf	?i1___fldiv+2,w
  4400  009D  00C0               	movwf	i1___flmul@a+2
  4401  009E  0821               	movf	?i1___fldiv+1,w
  4402  009F  00BF               	movwf	i1___flmul@a+1
  4403  00A0  0820               	movf	?i1___fldiv,w
  4404  00A1  00BE               	movwf	i1___flmul@a
  4405  00A2  3183  2309  3180   	fcall	i1___flmul
  4406  00A5  0140               	movlb	0	; select bank0
  4407  00A6  083D               	movf	?i1___flmul+3,w
  4408  00A7  00D9               	movwf	int_handler@voltage+3
  4409  00A8  083C               	movf	?i1___flmul+2,w
  4410  00A9  00D8               	movwf	int_handler@voltage+2
  4411  00AA  083B               	movf	?i1___flmul+1,w
  4412  00AB  00D7               	movwf	int_handler@voltage+1
  4413  00AC  083A               	movf	?i1___flmul,w
  4414  00AD  00D6               	movwf	int_handler@voltage
  4415                           
  4416                           ;main.c: 463:         if(voltage < 2 ){
  4417  00AE  0859               	movf	int_handler@voltage+3,w
  4418  00AF  00F3               	movwf	i1___flge@ff1+3
  4419  00B0  0858               	movf	int_handler@voltage+2,w
  4420  00B1  00F2               	movwf	i1___flge@ff1+2
  4421  00B2  0857               	movf	int_handler@voltage+1,w
  4422  00B3  00F1               	movwf	i1___flge@ff1+1
  4423  00B4  0856               	movf	int_handler@voltage,w
  4424  00B5  00F0               	movwf	i1___flge@ff1
  4425  00B6  3040               	movlw	64
  4426  00B7  00F7               	movwf	i1___flge@ff2+3
  4427  00B8  3000               	movlw	0
  4428  00B9  00F6               	movwf	i1___flge@ff2+2
  4429  00BA  3000               	movlw	0
  4430  00BB  00F5               	movwf	i1___flge@ff2+1
  4431  00BC  3000               	movlw	0
  4432  00BD  00F4               	movwf	i1___flge@ff2
  4433  00BE  318B  2313  3180   	fcall	i1___flge
  4434  00C1  1803               	btfsc	3,0
  4435  00C2  28C6               	goto	i1l163
  4436                           
  4437                           ;main.c: 465:             LATCbits.LATC0 = 1;
  4438  00C3  0140               	movlb	0	; select bank0
  4439  00C4  141A               	bsf	26,0	;volatile
  4440  00C5  28C8               	goto	L3
  4441  00C6                     i1l163:	
  4442                           ;main.c: 467:         }else {
  4443                           
  4444                           ;main.c: 466:             TRISCbits.TRISC0 = 0;
  4445                           
  4446                           
  4447                           ;main.c: 468:             LATCbits.LATC0 = 0;
  4448  00C6  0140               	movlb	0	; select bank0
  4449  00C7  101A               	bcf	26,0	;volatile
  4450  00C8                     L3:	
  4451                           
  4452                           ;main.c: 469:             TRISCbits.TRISC0 = 0;
  4453  00C8  1014               	bcf	20,0	;volatile
  4454  00C9                     i1l165:	
  4455  00C9  107E               	bcf	126,0	;clear compiler interrupt flag (level 1)
  4456  00CA  0009               	retfie
  4457  00CB                     __end_of_int_handler:	
  4458                           
  4459                           	psect	text16
  4460  0C8A                     __ptext16:	
  4461 ;; *************** function i1___xxtofl *****************
  4462 ;; Defined at:
  4463 ;;		line 10 in file "C:\Program Files (x86)\Microchip\xc8\v2.05\pic\sources\c99\common\xxtofl.c"
  4464 ;; Parameters:    Size  Location     Type
  4465 ;;  sign            1    wreg     unsigned char 
  4466 ;;  val             4    0[COMMON] long 
  4467 ;; Auto vars:     Size  Location     Type
  4468 ;;  sign            1    8[COMMON] unsigned char 
  4469 ;;  __xxtofl        4   10[COMMON] unsigned long 
  4470 ;;  __xxtofl        1    9[COMMON] unsigned char 
  4471 ;; Return value:  Size  Location     Type
  4472 ;;                  4    0[COMMON] unsigned char 
  4473 ;; Registers used:
  4474 ;;		wreg, status,2, status,0
  4475 ;; Tracked objects:
  4476 ;;		On entry : 0/0
  4477 ;;		On exit  : 0/0
  4478 ;;		Unchanged: 0/0
  4479 ;; Data sizes:     COMMON   BANK0   BANK1   BANK2   BANK3   BANK4   BANK5   BANK6
  4480 ;;      Params:         4       0       0       0       0       0       0       0
  4481 ;;      Locals:         6       0       0       0       0       0       0       0
  4482 ;;      Temps:          4       0       0       0       0       0       0       0
  4483 ;;      Totals:        14       0       0       0       0       0       0       0
  4484 ;;Total ram usage:       14 bytes
  4485 ;; Hardware stack levels used:    1
  4486 ;; This function calls:
  4487 ;;		Nothing
  4488 ;; This function is called by:
  4489 ;;		_int_handler
  4490 ;; This function uses a non-reentrant model
  4491 ;;
  4492                           
  4493                           
  4494                           ;psect for function i1___xxtofl
  4495  0C8A                     i1___xxtofl:	
  4496                           
  4497                           ;incstack = 0
  4498                           ; Regs used in i1___xxtofl: [wreg+status,2+status,0]
  4499                           ;i1___xxtofl@sign stored from wreg
  4500  0C8A  00F8               	movwf	i1___xxtofl@sign
  4501  0C8B  0878               	movf	i1___xxtofl@sign,w
  4502  0C8C  1D03               	btfss	3,2
  4503  0C8D  1FF3               	btfss	i1___xxtofl@val+3,7
  4504  0C8E  2C9F               	goto	i1l2566
  4505  0C8F  0970               	comf	i1___xxtofl@val,w
  4506  0C90  00FA               	movwf	i1___xxtofl@arg
  4507  0C91  0971               	comf	i1___xxtofl@val+1,w
  4508  0C92  00FB               	movwf	i1___xxtofl@arg+1
  4509  0C93  0972               	comf	i1___xxtofl@val+2,w
  4510  0C94  00FC               	movwf	i1___xxtofl@arg+2
  4511  0C95  0973               	comf	i1___xxtofl@val+3,w
  4512  0C96  00FD               	movwf	i1___xxtofl@arg+3
  4513  0C97  0AFA               	incf	i1___xxtofl@arg,f
  4514  0C98  1903               	skipnz
  4515  0C99  0AFB               	incf	i1___xxtofl@arg+1,f
  4516  0C9A  1903               	skipnz
  4517  0C9B  0AFC               	incf	i1___xxtofl@arg+2,f
  4518  0C9C  1903               	skipnz
  4519  0C9D  0AFD               	incf	i1___xxtofl@arg+3,f
  4520  0C9E  2CA7               	goto	i1l687
  4521  0C9F                     i1l2566:	
  4522  0C9F  0873               	movf	i1___xxtofl@val+3,w
  4523  0CA0  00FD               	movwf	i1___xxtofl@arg+3
  4524  0CA1  0872               	movf	i1___xxtofl@val+2,w
  4525  0CA2  00FC               	movwf	i1___xxtofl@arg+2
  4526  0CA3  0871               	movf	i1___xxtofl@val+1,w
  4527  0CA4  00FB               	movwf	i1___xxtofl@arg+1
  4528  0CA5  0870               	movf	i1___xxtofl@val,w
  4529  0CA6  00FA               	movwf	i1___xxtofl@arg
  4530  0CA7                     i1l687:	
  4531  0CA7  0873               	movf	i1___xxtofl@val+3,w
  4532  0CA8  0472               	iorwf	i1___xxtofl@val+2,w
  4533  0CA9  0471               	iorwf	i1___xxtofl@val+1,w
  4534  0CAA  0470               	iorwf	i1___xxtofl@val,w
  4535  0CAB  1D03               	skipz
  4536  0CAC  2CB6               	goto	i1l2572
  4537  0CAD  3000               	movlw	0
  4538  0CAE  00F3               	movwf	?i1___xxtofl+3
  4539  0CAF  3000               	movlw	0
  4540  0CB0  00F2               	movwf	?i1___xxtofl+2
  4541  0CB1  3000               	movlw	0
  4542  0CB2  00F1               	movwf	?i1___xxtofl+1
  4543  0CB3  3000               	movlw	0
  4544  0CB4  00F0               	movwf	?i1___xxtofl
  4545  0CB5  0008               	return
  4546  0CB6                     i1l2572:	
  4547  0CB6  3096               	movlw	150
  4548  0CB7  00F4               	movwf	??i1___xxtofl
  4549  0CB8  0874               	movf	??i1___xxtofl,w
  4550  0CB9  00F9               	movwf	i1___xxtofl@exp
  4551  0CBA                     i1l2576:	
  4552  0CBA  30FE               	movlw	254
  4553  0CBB  057D               	andwf	i1___xxtofl@arg+3,w
  4554  0CBC  1903               	btfsc	3,2
  4555  0CBD  2CDD               	goto	i1l693
  4556  0CBE  3001               	movlw	1
  4557  0CBF  00F4               	movwf	??i1___xxtofl
  4558  0CC0  0874               	movf	??i1___xxtofl,w
  4559  0CC1  07F9               	addwf	i1___xxtofl@exp,f
  4560  0CC2  3001               	movlw	1
  4561  0CC3                     u359_25:	
  4562  0CC3  36FD               	lsrf	i1___xxtofl@arg+3,f
  4563  0CC4  0CFC               	rrf	i1___xxtofl@arg+2,f
  4564  0CC5  0CFB               	rrf	i1___xxtofl@arg+1,f
  4565  0CC6  0CFA               	rrf	i1___xxtofl@arg,f
  4566  0CC7  0B89               	decfsz	9,f
  4567  0CC8  2CC3               	goto	u359_25
  4568  0CC9  2CBA               	goto	i1l2576
  4569  0CCA                     i1l2578:	
  4570  0CCA  3001               	movlw	1
  4571  0CCB  00F4               	movwf	??i1___xxtofl
  4572  0CCC  0874               	movf	??i1___xxtofl,w
  4573  0CCD  07F9               	addwf	i1___xxtofl@exp,f
  4574  0CCE  3001               	movlw	1
  4575  0CCF  07FA               	addwf	i1___xxtofl@arg,f
  4576  0CD0  3000               	movlw	0
  4577  0CD1  3DFB               	addwfc	i1___xxtofl@arg+1,f
  4578  0CD2  3000               	movlw	0
  4579  0CD3  3DFC               	addwfc	i1___xxtofl@arg+2,f
  4580  0CD4  3000               	movlw	0
  4581  0CD5  3DFD               	addwfc	i1___xxtofl@arg+3,f
  4582  0CD6  3001               	movlw	1
  4583  0CD7                     u361_25:	
  4584  0CD7  36FD               	lsrf	i1___xxtofl@arg+3,f
  4585  0CD8  0CFC               	rrf	i1___xxtofl@arg+2,f
  4586  0CD9  0CFB               	rrf	i1___xxtofl@arg+1,f
  4587  0CDA  0CFA               	rrf	i1___xxtofl@arg,f
  4588  0CDB  0B89               	decfsz	9,f
  4589  0CDC  2CD7               	goto	u361_25
  4590  0CDD                     i1l693:	
  4591  0CDD  30FF               	movlw	255
  4592  0CDE  057D               	andwf	i1___xxtofl@arg+3,w
  4593  0CDF  1903               	btfsc	3,2
  4594  0CE0  2CEF               	goto	i1l2586
  4595  0CE1  2CCA               	goto	i1l2578
  4596  0CE2                     i1l2588:	
  4597  0CE2  3002               	movlw	2
  4598  0CE3  0279               	subwf	i1___xxtofl@exp,w
  4599  0CE4  1C03               	btfss	3,0
  4600  0CE5  2CF1               	goto	i1l700
  4601  0CE6  3001               	movlw	1
  4602  0CE7  02F9               	subwf	i1___xxtofl@exp,f
  4603  0CE8  3001               	movlw	1
  4604  0CE9                     u363_25:	
  4605  0CE9  35FA               	lslf	i1___xxtofl@arg,f
  4606  0CEA  0DFB               	rlf	i1___xxtofl@arg+1,f
  4607  0CEB  0DFC               	rlf	i1___xxtofl@arg+2,f
  4608  0CEC  0DFD               	rlf	i1___xxtofl@arg+3,f
  4609  0CED  0B89               	decfsz	9,f
  4610  0CEE  2CE9               	goto	u363_25
  4611  0CEF                     i1l2586:	
  4612  0CEF  1FFC               	btfss	i1___xxtofl@arg+2,7
  4613  0CF0  2CE2               	goto	i1l2588
  4614  0CF1                     i1l700:	
  4615  0CF1  1879               	btfsc	i1___xxtofl@exp,0
  4616  0CF2  2CFB               	goto	i1l701
  4617  0CF3  30FF               	movlw	255
  4618  0CF4  05FA               	andwf	i1___xxtofl@arg,f
  4619  0CF5  30FF               	movlw	255
  4620  0CF6  05FB               	andwf	i1___xxtofl@arg+1,f
  4621  0CF7  307F               	movlw	127
  4622  0CF8  05FC               	andwf	i1___xxtofl@arg+2,f
  4623  0CF9  30FF               	movlw	255
  4624  0CFA  05FD               	andwf	i1___xxtofl@arg+3,f
  4625  0CFB                     i1l701:	
  4626  0CFB  1003               	clrc
  4627  0CFC  0CF9               	rrf	i1___xxtofl@exp,f
  4628  0CFD  0879               	movf	i1___xxtofl@exp,w
  4629  0CFE  00F4               	movwf	??i1___xxtofl
  4630  0CFF  01F5               	clrf	??i1___xxtofl+1
  4631  0D00  01F6               	clrf	??i1___xxtofl+2
  4632  0D01  01F7               	clrf	??i1___xxtofl+3
  4633  0D02  3018               	movlw	24
  4634  0D03                     u367_25:	
  4635  0D03  35F4               	lslf	??i1___xxtofl,f
  4636  0D04  0DF5               	rlf	??i1___xxtofl+1,f
  4637  0D05  0DF6               	rlf	??i1___xxtofl+2,f
  4638  0D06  0DF7               	rlf	??i1___xxtofl+3,f
  4639  0D07  0B89               	decfsz	9,f
  4640  0D08  2D03               	goto	u367_25
  4641  0D09  0874               	movf	??i1___xxtofl,w
  4642  0D0A  04FA               	iorwf	i1___xxtofl@arg,f
  4643  0D0B  0875               	movf	??i1___xxtofl+1,w
  4644  0D0C  04FB               	iorwf	i1___xxtofl@arg+1,f
  4645  0D0D  0876               	movf	??i1___xxtofl+2,w
  4646  0D0E  04FC               	iorwf	i1___xxtofl@arg+2,f
  4647  0D0F  0877               	movf	??i1___xxtofl+3,w
  4648  0D10  04FD               	iorwf	i1___xxtofl@arg+3,f
  4649  0D11  0878               	movf	i1___xxtofl@sign,w
  4650  0D12  1D03               	btfss	3,2
  4651  0D13  1FF3               	btfss	i1___xxtofl@val+3,7
  4652  0D14  2D16               	goto	i1l2600
  4653  0D15  17FD               	bsf	i1___xxtofl@arg+3,7
  4654  0D16                     i1l2600:	
  4655  0D16  087D               	movf	i1___xxtofl@arg+3,w
  4656  0D17  00F3               	movwf	?i1___xxtofl+3
  4657  0D18  087C               	movf	i1___xxtofl@arg+2,w
  4658  0D19  00F2               	movwf	?i1___xxtofl+2
  4659  0D1A  087B               	movf	i1___xxtofl@arg+1,w
  4660  0D1B  00F1               	movwf	?i1___xxtofl+1
  4661  0D1C  087A               	movf	i1___xxtofl@arg,w
  4662  0D1D  00F0               	movwf	?i1___xxtofl
  4663  0D1E  0008               	return
  4664  0D1F                     __end_ofi1___xxtofl:	
  4665                           
  4666                           	psect	text17
  4667  0309                     __ptext17:	
  4668 ;; *************** function i1___flmul *****************
  4669 ;; Defined at:
  4670 ;;		line 8 in file "C:\Program Files (x86)\Microchip\xc8\v2.05\pic\sources\c99\common\sprcmul.c"
  4671 ;; Parameters:    Size  Location     Type
  4672 ;;  b               4   26[BANK0 ] unsigned char 
  4673 ;;  a               4   30[BANK0 ] unsigned char 
  4674 ;; Auto vars:     Size  Location     Type
  4675 ;;  __flmul         4   46[BANK0 ] struct .
  4676 ;;  __flmul         4   40[BANK0 ] unsigned long 
  4677 ;;  __flmul         2   50[BANK0 ] struct .
  4678 ;;  __flmul         1   45[BANK0 ] unsigned char 
  4679 ;;  __flmul         1   44[BANK0 ] unsigned char 
  4680 ;;  __flmul         1   39[BANK0 ] unsigned char 
  4681 ;; Return value:  Size  Location     Type
  4682 ;;                  4   26[BANK0 ] unsigned char 
  4683 ;; Registers used:
  4684 ;;		wreg, status,2, status,0, pclath, cstack
  4685 ;; Tracked objects:
  4686 ;;		On entry : 0/0
  4687 ;;		On exit  : 0/0
  4688 ;;		Unchanged: 0/0
  4689 ;; Data sizes:     COMMON   BANK0   BANK1   BANK2   BANK3   BANK4   BANK5   BANK6
  4690 ;;      Params:         0       8       0       0       0       0       0       0
  4691 ;;      Locals:         0      13       0       0       0       0       0       0
  4692 ;;      Temps:          0       5       0       0       0       0       0       0
  4693 ;;      Totals:         0      26       0       0       0       0       0       0
  4694 ;;Total ram usage:       26 bytes
  4695 ;; Hardware stack levels used:    1
  4696 ;; Hardware stack levels required when called:    1
  4697 ;; This function calls:
  4698 ;;		i1__Umul8_16
  4699 ;; This function is called by:
  4700 ;;		_int_handler
  4701 ;; This function uses a non-reentrant model
  4702 ;;
  4703                           
  4704                           
  4705                           ;psect for function i1___flmul
  4706  0309                     i1___flmul:	
  4707                           
  4708                           ;incstack = 0
  4709                           ; Regs used in i1___flmul: [wreg+status,2+status,0+pclath+cstack]
  4710  0309  0140               	movlb	0	; select bank0
  4711  030A  083D               	movf	i1___flmul@b+3,w
  4712  030B  3980               	andlw	128
  4713  030C  00C2               	movwf	??i1___flmul
  4714  030D  0842               	movf	??i1___flmul,w
  4715  030E  00C7               	movwf	i1___flmul@sign
  4716  030F  353D               	lslf	i1___flmul@b+3,w
  4717  0310  00C2               	movwf	??i1___flmul
  4718  0311  0842               	movf	??i1___flmul,w
  4719  0312  00CD               	movwf	i1___flmul@bexp
  4720  0313  1BBC               	btfsc	i1___flmul@b+2,7
  4721  0314  144D               	bsf	i1___flmul@bexp,0
  4722  0315  084D               	movf	i1___flmul@bexp,w
  4723  0316  1903               	btfsc	3,2
  4724  0317  2B25               	goto	i1l2436
  4725  0318  0A4D               	incf	i1___flmul@bexp,w
  4726  0319  1D03               	btfss	3,2
  4727  031A  2B23               	goto	i1l2434
  4728  031B  3000               	movlw	0
  4729  031C  00BD               	movwf	i1___flmul@b+3
  4730  031D  3000               	movlw	0
  4731  031E  00BC               	movwf	i1___flmul@b+2
  4732  031F  3000               	movlw	0
  4733  0320  00BB               	movwf	i1___flmul@b+1
  4734  0321  3000               	movlw	0
  4735  0322  00BA               	movwf	i1___flmul@b
  4736  0323                     i1l2434:	
  4737  0323  17BC               	bsf	i1___flmul@b+2,7
  4738  0324  2B2D               	goto	i1l2438
  4739  0325                     i1l2436:	
  4740  0325  3000               	movlw	0
  4741  0326  00BD               	movwf	i1___flmul@b+3
  4742  0327  3000               	movlw	0
  4743  0328  00BC               	movwf	i1___flmul@b+2
  4744  0329  3000               	movlw	0
  4745  032A  00BB               	movwf	i1___flmul@b+1
  4746  032B  3000               	movlw	0
  4747  032C  00BA               	movwf	i1___flmul@b
  4748  032D                     i1l2438:	
  4749  032D  0841               	movf	i1___flmul@a+3,w
  4750  032E  3980               	andlw	128
  4751  032F  00C2               	movwf	??i1___flmul
  4752  0330  0842               	movf	??i1___flmul,w
  4753  0331  06C7               	xorwf	i1___flmul@sign,f
  4754  0332  3541               	lslf	i1___flmul@a+3,w
  4755  0333  00C2               	movwf	??i1___flmul
  4756  0334  0842               	movf	??i1___flmul,w
  4757  0335  00CC               	movwf	i1___flmul@aexp
  4758  0336  1BC0               	btfsc	i1___flmul@a+2,7
  4759  0337  144C               	bsf	i1___flmul@aexp,0
  4760  0338  084C               	movf	i1___flmul@aexp,w
  4761  0339  1903               	btfsc	3,2
  4762  033A  2B48               	goto	i1l2454
  4763  033B  0A4C               	incf	i1___flmul@aexp,w
  4764  033C  1D03               	btfss	3,2
  4765  033D  2B46               	goto	i1l2452
  4766  033E  3000               	movlw	0
  4767  033F  00C1               	movwf	i1___flmul@a+3
  4768  0340  3000               	movlw	0
  4769  0341  00C0               	movwf	i1___flmul@a+2
  4770  0342  3000               	movlw	0
  4771  0343  00BF               	movwf	i1___flmul@a+1
  4772  0344  3000               	movlw	0
  4773  0345  00BE               	movwf	i1___flmul@a
  4774  0346                     i1l2452:	
  4775  0346  17C0               	bsf	i1___flmul@a+2,7
  4776  0347  2B50               	goto	i1l2456
  4777  0348                     i1l2454:	
  4778  0348  3000               	movlw	0
  4779  0349  00C1               	movwf	i1___flmul@a+3
  4780  034A  3000               	movlw	0
  4781  034B  00C0               	movwf	i1___flmul@a+2
  4782  034C  3000               	movlw	0
  4783  034D  00BF               	movwf	i1___flmul@a+1
  4784  034E  3000               	movlw	0
  4785  034F  00BE               	movwf	i1___flmul@a
  4786  0350                     i1l2456:	
  4787  0350  084C               	movf	i1___flmul@aexp,w
  4788  0351  1D03               	btfss	3,2
  4789  0352  084D               	movf	i1___flmul@bexp,w
  4790  0353  1D03               	btfss	3,2
  4791  0354  2B5E               	goto	i1l2464
  4792  0355  3000               	movlw	0
  4793  0356  00BD               	movwf	?i1___flmul+3
  4794  0357  3000               	movlw	0
  4795  0358  00BC               	movwf	?i1___flmul+2
  4796  0359  3000               	movlw	0
  4797  035A  00BB               	movwf	?i1___flmul+1
  4798  035B  3000               	movlw	0
  4799  035C  00BA               	movwf	?i1___flmul
  4800  035D  0008               	return
  4801  035E                     i1l2464:	
  4802  035E  083A               	movf	i1___flmul@b,w
  4803  035F  00C2               	movwf	??i1___flmul
  4804  0360  0842               	movf	??i1___flmul,w
  4805  0361  00F0               	movwf	i1__Umul8_16@multiplicand
  4806  0362  0840               	movf	i1___flmul@a+2,w
  4807  0363  3189  21A4  3183   	fcall	i1__Umul8_16
  4808  0366  0871               	movf	?i1__Umul8_16+1,w
  4809  0367  0140               	movlb	0	; select bank0
  4810  0368  00D3               	movwf	i1___flmul@temp+1
  4811  0369  0870               	movf	?i1__Umul8_16,w
  4812  036A  00D2               	movwf	i1___flmul@temp
  4813  036B  0852               	movf	i1___flmul@temp,w
  4814  036C  00C2               	movwf	??i1___flmul
  4815  036D  01C3               	clrf	??i1___flmul+1
  4816  036E  01C4               	clrf	??i1___flmul+2
  4817  036F  01C5               	clrf	??i1___flmul+3
  4818  0370  0845               	movf	??i1___flmul+3,w
  4819  0371  00CB               	movwf	i1___flmul@grs+3
  4820  0372  0844               	movf	??i1___flmul+2,w
  4821  0373  00CA               	movwf	i1___flmul@grs+2
  4822  0374  0843               	movf	??i1___flmul+1,w
  4823  0375  00C9               	movwf	i1___flmul@grs+1
  4824  0376  0842               	movf	??i1___flmul,w
  4825  0377  00C8               	movwf	i1___flmul@grs
  4826  0378  0853               	movf	i1___flmul@temp+1,w
  4827  0379  00C2               	movwf	??i1___flmul
  4828  037A  01C3               	clrf	??i1___flmul+1
  4829  037B  01C4               	clrf	??i1___flmul+2
  4830  037C  01C5               	clrf	??i1___flmul+3
  4831  037D  0845               	movf	??i1___flmul+3,w
  4832  037E  00D1               	movwf	i1___flmul@prod+3
  4833  037F  0844               	movf	??i1___flmul+2,w
  4834  0380  00D0               	movwf	i1___flmul@prod+2
  4835  0381  0843               	movf	??i1___flmul+1,w
  4836  0382  00CF               	movwf	i1___flmul@prod+1
  4837  0383  0842               	movf	??i1___flmul,w
  4838  0384  00CE               	movwf	i1___flmul@prod
  4839  0385  083B               	movf	i1___flmul@b+1,w
  4840  0386  00C2               	movwf	??i1___flmul
  4841  0387  0842               	movf	??i1___flmul,w
  4842  0388  00F0               	movwf	i1__Umul8_16@multiplicand
  4843  0389  083F               	movf	i1___flmul@a+1,w
  4844  038A  3189  21A4  3183   	fcall	i1__Umul8_16
  4845  038D  0871               	movf	?i1__Umul8_16+1,w
  4846  038E  0140               	movlb	0	; select bank0
  4847  038F  00D3               	movwf	i1___flmul@temp+1
  4848  0390  0870               	movf	?i1__Umul8_16,w
  4849  0391  00D2               	movwf	i1___flmul@temp
  4850  0392  0852               	movf	i1___flmul@temp,w
  4851  0393  00C2               	movwf	??i1___flmul
  4852  0394  01C3               	clrf	??i1___flmul+1
  4853  0395  01C4               	clrf	??i1___flmul+2
  4854  0396  01C5               	clrf	??i1___flmul+3
  4855  0397  0842               	movf	??i1___flmul,w
  4856  0398  07C8               	addwf	i1___flmul@grs,f
  4857  0399  0843               	movf	??i1___flmul+1,w
  4858  039A  3DC9               	addwfc	i1___flmul@grs+1,f
  4859  039B  0844               	movf	??i1___flmul+2,w
  4860  039C  3DCA               	addwfc	i1___flmul@grs+2,f
  4861  039D  0845               	movf	??i1___flmul+3,w
  4862  039E  3DCB               	addwfc	i1___flmul@grs+3,f
  4863  039F  0853               	movf	i1___flmul@temp+1,w
  4864  03A0  00C2               	movwf	??i1___flmul
  4865  03A1  01C3               	clrf	??i1___flmul+1
  4866  03A2  01C4               	clrf	??i1___flmul+2
  4867  03A3  01C5               	clrf	??i1___flmul+3
  4868  03A4  0842               	movf	??i1___flmul,w
  4869  03A5  07CE               	addwf	i1___flmul@prod,f
  4870  03A6  0843               	movf	??i1___flmul+1,w
  4871  03A7  3DCF               	addwfc	i1___flmul@prod+1,f
  4872  03A8  0844               	movf	??i1___flmul+2,w
  4873  03A9  3DD0               	addwfc	i1___flmul@prod+2,f
  4874  03AA  0845               	movf	??i1___flmul+3,w
  4875  03AB  3DD1               	addwfc	i1___flmul@prod+3,f
  4876  03AC  083C               	movf	i1___flmul@b+2,w
  4877  03AD  00C2               	movwf	??i1___flmul
  4878  03AE  0842               	movf	??i1___flmul,w
  4879  03AF  00F0               	movwf	i1__Umul8_16@multiplicand
  4880  03B0  083E               	movf	i1___flmul@a,w
  4881  03B1  3189  21A4  3183   	fcall	i1__Umul8_16
  4882  03B4  0871               	movf	?i1__Umul8_16+1,w
  4883  03B5  0140               	movlb	0	; select bank0
  4884  03B6  00D3               	movwf	i1___flmul@temp+1
  4885  03B7  0870               	movf	?i1__Umul8_16,w
  4886  03B8  00D2               	movwf	i1___flmul@temp
  4887  03B9  0852               	movf	i1___flmul@temp,w
  4888  03BA  00C2               	movwf	??i1___flmul
  4889  03BB  01C3               	clrf	??i1___flmul+1
  4890  03BC  01C4               	clrf	??i1___flmul+2
  4891  03BD  01C5               	clrf	??i1___flmul+3
  4892  03BE  0842               	movf	??i1___flmul,w
  4893  03BF  07C8               	addwf	i1___flmul@grs,f
  4894  03C0  0843               	movf	??i1___flmul+1,w
  4895  03C1  3DC9               	addwfc	i1___flmul@grs+1,f
  4896  03C2  0844               	movf	??i1___flmul+2,w
  4897  03C3  3DCA               	addwfc	i1___flmul@grs+2,f
  4898  03C4  0845               	movf	??i1___flmul+3,w
  4899  03C5  3DCB               	addwfc	i1___flmul@grs+3,f
  4900  03C6  0853               	movf	i1___flmul@temp+1,w
  4901  03C7  00C2               	movwf	??i1___flmul
  4902  03C8  01C3               	clrf	??i1___flmul+1
  4903  03C9  01C4               	clrf	??i1___flmul+2
  4904  03CA  01C5               	clrf	??i1___flmul+3
  4905  03CB  0842               	movf	??i1___flmul,w
  4906  03CC  07CE               	addwf	i1___flmul@prod,f
  4907  03CD  0843               	movf	??i1___flmul+1,w
  4908  03CE  3DCF               	addwfc	i1___flmul@prod+1,f
  4909  03CF  0844               	movf	??i1___flmul+2,w
  4910  03D0  3DD0               	addwfc	i1___flmul@prod+2,f
  4911  03D1  0845               	movf	??i1___flmul+3,w
  4912  03D2  3DD1               	addwfc	i1___flmul@prod+3,f
  4913  03D3  3008               	movlw	8
  4914  03D4                     u338_25:	
  4915  03D4  35C8               	lslf	i1___flmul@grs,f
  4916  03D5  0DC9               	rlf	i1___flmul@grs+1,f
  4917  03D6  0DCA               	rlf	i1___flmul@grs+2,f
  4918  03D7  0DCB               	rlf	i1___flmul@grs+3,f
  4919  03D8  0B89               	decfsz	9,f
  4920  03D9  2BD4               	goto	u338_25
  4921  03DA  083B               	movf	i1___flmul@b+1,w
  4922  03DB  00C2               	movwf	??i1___flmul
  4923  03DC  0842               	movf	??i1___flmul,w
  4924  03DD  00F0               	movwf	i1__Umul8_16@multiplicand
  4925  03DE  083E               	movf	i1___flmul@a,w
  4926  03DF  3189  21A4  3183   	fcall	i1__Umul8_16
  4927  03E2  0871               	movf	?i1__Umul8_16+1,w
  4928  03E3  0140               	movlb	0	; select bank0
  4929  03E4  00D3               	movwf	i1___flmul@temp+1
  4930  03E5  0870               	movf	?i1__Umul8_16,w
  4931  03E6  00D2               	movwf	i1___flmul@temp
  4932  03E7  0852               	movf	i1___flmul@temp,w
  4933  03E8  07C8               	addwf	i1___flmul@grs,f
  4934  03E9  0853               	movf	i1___flmul@temp+1,w
  4935  03EA  3DC9               	addwfc	i1___flmul@grs+1,f
  4936  03EB  3000               	movlw	0
  4937  03EC  3DCA               	addwfc	i1___flmul@grs+2,f
  4938  03ED  3DCB               	addwfc	i1___flmul@grs+3,f
  4939  03EE  083A               	movf	i1___flmul@b,w
  4940  03EF  00C2               	movwf	??i1___flmul
  4941  03F0  0842               	movf	??i1___flmul,w
  4942  03F1  00F0               	movwf	i1__Umul8_16@multiplicand
  4943  03F2  083F               	movf	i1___flmul@a+1,w
  4944  03F3  3189  21A4  3183   	fcall	i1__Umul8_16
  4945  03F6  0871               	movf	?i1__Umul8_16+1,w
  4946  03F7  0140               	movlb	0	; select bank0
  4947  03F8  00D3               	movwf	i1___flmul@temp+1
  4948  03F9  0870               	movf	?i1__Umul8_16,w
  4949  03FA  00D2               	movwf	i1___flmul@temp
  4950  03FB  0852               	movf	i1___flmul@temp,w
  4951  03FC  07C8               	addwf	i1___flmul@grs,f
  4952  03FD  0853               	movf	i1___flmul@temp+1,w
  4953  03FE  3DC9               	addwfc	i1___flmul@grs+1,f
  4954  03FF  3000               	movlw	0
  4955  0400  3DCA               	addwfc	i1___flmul@grs+2,f
  4956  0401  3DCB               	addwfc	i1___flmul@grs+3,f
  4957  0402  3008               	movlw	8
  4958  0403                     u339_25:	
  4959  0403  35C8               	lslf	i1___flmul@grs,f
  4960  0404  0DC9               	rlf	i1___flmul@grs+1,f
  4961  0405  0DCA               	rlf	i1___flmul@grs+2,f
  4962  0406  0DCB               	rlf	i1___flmul@grs+3,f
  4963  0407  0B89               	decfsz	9,f
  4964  0408  2C03               	goto	u339_25
  4965  0409  083A               	movf	i1___flmul@b,w
  4966  040A  00C2               	movwf	??i1___flmul
  4967  040B  0842               	movf	??i1___flmul,w
  4968  040C  00F0               	movwf	i1__Umul8_16@multiplicand
  4969  040D  083E               	movf	i1___flmul@a,w
  4970  040E  3189  21A4  3183   	fcall	i1__Umul8_16
  4971  0411  0871               	movf	?i1__Umul8_16+1,w
  4972  0412  0140               	movlb	0	; select bank0
  4973  0413  00D3               	movwf	i1___flmul@temp+1
  4974  0414  0870               	movf	?i1__Umul8_16,w
  4975  0415  00D2               	movwf	i1___flmul@temp
  4976  0416  0852               	movf	i1___flmul@temp,w
  4977  0417  07C8               	addwf	i1___flmul@grs,f
  4978  0418  0853               	movf	i1___flmul@temp+1,w
  4979  0419  3DC9               	addwfc	i1___flmul@grs+1,f
  4980  041A  3000               	movlw	0
  4981  041B  3DCA               	addwfc	i1___flmul@grs+2,f
  4982  041C  3DCB               	addwfc	i1___flmul@grs+3,f
  4983  041D  083B               	movf	i1___flmul@b+1,w
  4984  041E  00C2               	movwf	??i1___flmul
  4985  041F  0842               	movf	??i1___flmul,w
  4986  0420  00F0               	movwf	i1__Umul8_16@multiplicand
  4987  0421  0840               	movf	i1___flmul@a+2,w
  4988  0422  3189  21A4  3183   	fcall	i1__Umul8_16
  4989  0425  0871               	movf	?i1__Umul8_16+1,w
  4990  0426  0140               	movlb	0	; select bank0
  4991  0427  00D3               	movwf	i1___flmul@temp+1
  4992  0428  0870               	movf	?i1__Umul8_16,w
  4993  0429  00D2               	movwf	i1___flmul@temp
  4994  042A  0852               	movf	i1___flmul@temp,w
  4995  042B  07CE               	addwf	i1___flmul@prod,f
  4996  042C  0853               	movf	i1___flmul@temp+1,w
  4997  042D  3DCF               	addwfc	i1___flmul@prod+1,f
  4998  042E  3000               	movlw	0
  4999  042F  3DD0               	addwfc	i1___flmul@prod+2,f
  5000  0430  3DD1               	addwfc	i1___flmul@prod+3,f
  5001  0431  083C               	movf	i1___flmul@b+2,w
  5002  0432  00C2               	movwf	??i1___flmul
  5003  0433  0842               	movf	??i1___flmul,w
  5004  0434  00F0               	movwf	i1__Umul8_16@multiplicand
  5005  0435  083F               	movf	i1___flmul@a+1,w
  5006  0436  3189  21A4  3183   	fcall	i1__Umul8_16
  5007  0439  0871               	movf	?i1__Umul8_16+1,w
  5008  043A  0140               	movlb	0	; select bank0
  5009  043B  00D3               	movwf	i1___flmul@temp+1
  5010  043C  0870               	movf	?i1__Umul8_16,w
  5011  043D  00D2               	movwf	i1___flmul@temp
  5012  043E  0852               	movf	i1___flmul@temp,w
  5013  043F  07CE               	addwf	i1___flmul@prod,f
  5014  0440  0853               	movf	i1___flmul@temp+1,w
  5015  0441  3DCF               	addwfc	i1___flmul@prod+1,f
  5016  0442  3000               	movlw	0
  5017  0443  3DD0               	addwfc	i1___flmul@prod+2,f
  5018  0444  3DD1               	addwfc	i1___flmul@prod+3,f
  5019  0445  083C               	movf	i1___flmul@b+2,w
  5020  0446  00C2               	movwf	??i1___flmul
  5021  0447  0842               	movf	??i1___flmul,w
  5022  0448  00F0               	movwf	i1__Umul8_16@multiplicand
  5023  0449  0840               	movf	i1___flmul@a+2,w
  5024  044A  3189  21A4  3183   	fcall	i1__Umul8_16
  5025  044D  0871               	movf	?i1__Umul8_16+1,w
  5026  044E  0140               	movlb	0	; select bank0
  5027  044F  00D3               	movwf	i1___flmul@temp+1
  5028  0450  0870               	movf	?i1__Umul8_16,w
  5029  0451  00D2               	movwf	i1___flmul@temp
  5030  0452  0852               	movf	i1___flmul@temp,w
  5031  0453  00C2               	movwf	??i1___flmul
  5032  0454  0853               	movf	i1___flmul@temp+1,w
  5033  0455  00C3               	movwf	??i1___flmul+1
  5034  0456  01C4               	clrf	??i1___flmul+2
  5035  0457  01C5               	clrf	??i1___flmul+3
  5036  0458  3008               	movlw	8
  5037  0459                     u340_25:	
  5038  0459  35C2               	lslf	??i1___flmul,f
  5039  045A  0DC3               	rlf	??i1___flmul+1,f
  5040  045B  0DC4               	rlf	??i1___flmul+2,f
  5041  045C  0DC5               	rlf	??i1___flmul+3,f
  5042  045D  0B89               	decfsz	9,f
  5043  045E  2C59               	goto	u340_25
  5044  045F  0842               	movf	??i1___flmul,w
  5045  0460  07CE               	addwf	i1___flmul@prod,f
  5046  0461  0843               	movf	??i1___flmul+1,w
  5047  0462  3DCF               	addwfc	i1___flmul@prod+1,f
  5048  0463  0844               	movf	??i1___flmul+2,w
  5049  0464  3DD0               	addwfc	i1___flmul@prod+2,f
  5050  0465  0845               	movf	??i1___flmul+3,w
  5051  0466  3DD1               	addwfc	i1___flmul@prod+3,f
  5052  0467  0848               	movf	i1___flmul@grs,w
  5053  0468  00C2               	movwf	??i1___flmul
  5054  0469  0849               	movf	i1___flmul@grs+1,w
  5055  046A  00C3               	movwf	??i1___flmul+1
  5056  046B  084A               	movf	i1___flmul@grs+2,w
  5057  046C  00C4               	movwf	??i1___flmul+2
  5058  046D  084B               	movf	i1___flmul@grs+3,w
  5059  046E  00C5               	movwf	??i1___flmul+3
  5060  046F  3018               	movlw	24
  5061  0470                     u341_25:	
  5062  0470  36C5               	lsrf	??i1___flmul+3,f
  5063  0471  0CC4               	rrf	??i1___flmul+2,f
  5064  0472  0CC3               	rrf	??i1___flmul+1,f
  5065  0473  0CC2               	rrf	??i1___flmul,f
  5066  0474  0B89               	decfsz	9,f
  5067  0475  2C70               	goto	u341_25
  5068  0476  0842               	movf	??i1___flmul,w
  5069  0477  07CE               	addwf	i1___flmul@prod,f
  5070  0478  0843               	movf	??i1___flmul+1,w
  5071  0479  3DCF               	addwfc	i1___flmul@prod+1,f
  5072  047A  0844               	movf	??i1___flmul+2,w
  5073  047B  3DD0               	addwfc	i1___flmul@prod+2,f
  5074  047C  0845               	movf	??i1___flmul+3,w
  5075  047D  3DD1               	addwfc	i1___flmul@prod+3,f
  5076  047E  3008               	movlw	8
  5077  047F                     u342_25:	
  5078  047F  35C8               	lslf	i1___flmul@grs,f
  5079  0480  0DC9               	rlf	i1___flmul@grs+1,f
  5080  0481  0DCA               	rlf	i1___flmul@grs+2,f
  5081  0482  0DCB               	rlf	i1___flmul@grs+3,f
  5082  0483  0B89               	decfsz	9,f
  5083  0484  2C7F               	goto	u342_25
  5084  0485  084D               	movf	i1___flmul@bexp,w
  5085  0486  074C               	addwf	i1___flmul@aexp,w
  5086  0487  00C2               	movwf	??i1___flmul
  5087  0488  01C3               	clrf	??i1___flmul+1
  5088  0489  0DC3               	rlf	??i1___flmul+1,f
  5089  048A  0842               	movf	??i1___flmul,w
  5090  048B  3E82               	addlw	130
  5091  048C  00D2               	movwf	i1___flmul@temp
  5092  048D  30FF               	movlw	255
  5093  048E  3D43               	addwfc	??i1___flmul+1,w
  5094  048F  00D3               	movwf	i1___flmul@temp+1
  5095  0490                     i1l2516:	
  5096  0490  1BD0               	btfsc	i1___flmul@prod+2,7
  5097  0491  2CA7               	goto	i1l2518
  5098  0492  3001               	movlw	1
  5099  0493                     u343_25:	
  5100  0493  35CE               	lslf	i1___flmul@prod,f
  5101  0494  0DCF               	rlf	i1___flmul@prod+1,f
  5102  0495  0DD0               	rlf	i1___flmul@prod+2,f
  5103  0496  0DD1               	rlf	i1___flmul@prod+3,f
  5104  0497  0B89               	decfsz	9,f
  5105  0498  2C93               	goto	u343_25
  5106  0499  1BCB               	btfsc	i1___flmul@grs+3,7
  5107  049A  144E               	bsf	i1___flmul@prod,0
  5108  049B  3001               	movlw	1
  5109  049C                     u345_25:	
  5110  049C  35C8               	lslf	i1___flmul@grs,f
  5111  049D  0DC9               	rlf	i1___flmul@grs+1,f
  5112  049E  0DCA               	rlf	i1___flmul@grs+2,f
  5113  049F  0DCB               	rlf	i1___flmul@grs+3,f
  5114  04A0  0B89               	decfsz	9,f
  5115  04A1  2C9C               	goto	u345_25
  5116  04A2  30FF               	movlw	255
  5117  04A3  07D2               	addwf	i1___flmul@temp,f
  5118  04A4  30FF               	movlw	255
  5119  04A5  3DD3               	addwfc	i1___flmul@temp+1,f
  5120  04A6  2C90               	goto	i1l2516
  5121  04A7                     i1l2518:	
  5122  04A7  01CC               	clrf	i1___flmul@aexp
  5123  04A8  1FCB               	btfss	i1___flmul@grs+3,7
  5124  04A9  2CC0               	goto	i1l2528
  5125  04AA  30FF               	movlw	255
  5126  04AB  0548               	andwf	i1___flmul@grs,w
  5127  04AC  00C2               	movwf	??i1___flmul
  5128  04AD  30FF               	movlw	255
  5129  04AE  0549               	andwf	i1___flmul@grs+1,w
  5130  04AF  00C3               	movwf	??i1___flmul+1
  5131  04B0  30FF               	movlw	255
  5132  04B1  054A               	andwf	i1___flmul@grs+2,w
  5133  04B2  00C4               	movwf	??i1___flmul+2
  5134  04B3  307F               	movlw	127
  5135  04B4  054B               	andwf	i1___flmul@grs+3,w
  5136  04B5  00C5               	movwf	??i1___flmul+3
  5137  04B6  0845               	movf	??i1___flmul+3,w
  5138  04B7  0444               	iorwf	??i1___flmul+2,w
  5139  04B8  0443               	iorwf	??i1___flmul+1,w
  5140  04B9  0442               	iorwf	??i1___flmul,w
  5141  04BA  1903               	skipnz
  5142  04BB  184E               	btfsc	i1___flmul@prod,0
  5143  04BC  2CBE               	goto	i1l2524
  5144  04BD  2CC0               	goto	i1l2528
  5145  04BE                     i1l2524:	
  5146  04BE  01CC               	clrf	i1___flmul@aexp
  5147  04BF  0ACC               	incf	i1___flmul@aexp,f
  5148  04C0                     i1l2528:	
  5149  04C0  084C               	movf	i1___flmul@aexp,w
  5150  04C1  1903               	btfsc	3,2
  5151  04C2  2CE9               	goto	i1l2538
  5152  04C3  3001               	movlw	1
  5153  04C4  07CE               	addwf	i1___flmul@prod,f
  5154  04C5  3000               	movlw	0
  5155  04C6  3DCF               	addwfc	i1___flmul@prod+1,f
  5156  04C7  3000               	movlw	0
  5157  04C8  3DD0               	addwfc	i1___flmul@prod+2,f
  5158  04C9  3000               	movlw	0
  5159  04CA  3DD1               	addwfc	i1___flmul@prod+3,f
  5160  04CB  1C51               	btfss	i1___flmul@prod+3,0
  5161  04CC  2CE9               	goto	i1l2538
  5162  04CD  084E               	movf	i1___flmul@prod,w
  5163  04CE  00C2               	movwf	??i1___flmul
  5164  04CF  084F               	movf	i1___flmul@prod+1,w
  5165  04D0  00C3               	movwf	??i1___flmul+1
  5166  04D1  0850               	movf	i1___flmul@prod+2,w
  5167  04D2  00C4               	movwf	??i1___flmul+2
  5168  04D3  0851               	movf	i1___flmul@prod+3,w
  5169  04D4  00C5               	movwf	??i1___flmul+3
  5170  04D5  3001               	movlw	1
  5171  04D6  00C6               	movwf	??i1___flmul+4
  5172  04D7                     u352_25:	
  5173  04D7  37C5               	asrf	??i1___flmul+3,f
  5174  04D8  0CC4               	rrf	??i1___flmul+2,f
  5175  04D9  0CC3               	rrf	??i1___flmul+1,f
  5176  04DA  0CC2               	rrf	??i1___flmul,f
  5177  04DB  0BC6               	decfsz	??i1___flmul+4,f
  5178  04DC  2CD7               	goto	u352_25
  5179  04DD  0845               	movf	??i1___flmul+3,w
  5180  04DE  00D1               	movwf	i1___flmul@prod+3
  5181  04DF  0844               	movf	??i1___flmul+2,w
  5182  04E0  00D0               	movwf	i1___flmul@prod+2
  5183  04E1  0843               	movf	??i1___flmul+1,w
  5184  04E2  00CF               	movwf	i1___flmul@prod+1
  5185  04E3  0842               	movf	??i1___flmul,w
  5186  04E4  00CE               	movwf	i1___flmul@prod
  5187  04E5  3001               	movlw	1
  5188  04E6  07D2               	addwf	i1___flmul@temp,f
  5189  04E7  3000               	movlw	0
  5190  04E8  3DD3               	addwfc	i1___flmul@temp+1,f
  5191  04E9                     i1l2538:	
  5192  04E9  0853               	movf	i1___flmul@temp+1,w
  5193  04EA  3A80               	xorlw	128
  5194  04EB  00C2               	movwf	??i1___flmul
  5195  04EC  3080               	movlw	128
  5196  04ED  0242               	subwf	??i1___flmul,w
  5197  04EE  1D03               	skipz
  5198  04EF  2CF2               	goto	u353_25
  5199  04F0  30FF               	movlw	255
  5200  04F1  0252               	subwf	i1___flmul@temp,w
  5201  04F2                     u353_25:	
  5202  04F2  1C03               	skipc
  5203  04F3  2CFE               	goto	i1l2542
  5204  04F4  307F               	movlw	127
  5205  04F5  0140               	movlb	0	; select bank0
  5206  04F6  00D1               	movwf	i1___flmul@prod+3
  5207  04F7  3080               	movlw	128
  5208  04F8  00D0               	movwf	i1___flmul@prod+2
  5209  04F9  3000               	movlw	0
  5210  04FA  00CF               	movwf	i1___flmul@prod+1
  5211  04FB  3000               	movlw	0
  5212  04FC  00CE               	movwf	i1___flmul@prod
  5213  04FD  2D28               	goto	i1l661
  5214  04FE                     i1l2542:	
  5215  04FE  0140               	movlb	0	; select bank0
  5216  04FF  0853               	movf	i1___flmul@temp+1,w
  5217  0500  3A80               	xorlw	128
  5218  0501  00C2               	movwf	??i1___flmul
  5219  0502  3080               	movlw	128
  5220  0503  0242               	subwf	??i1___flmul,w
  5221  0504  1D03               	skipz
  5222  0505  2D08               	goto	u354_25
  5223  0506  3001               	movlw	1
  5224  0507  0252               	subwf	i1___flmul@temp,w
  5225  0508                     u354_25:	
  5226  0508  1803               	skipnc
  5227  0509  2D15               	goto	i1l2548
  5228  050A  3000               	movlw	0
  5229  050B  0140               	movlb	0	; select bank0
  5230  050C  00D1               	movwf	i1___flmul@prod+3
  5231  050D  3000               	movlw	0
  5232  050E  00D0               	movwf	i1___flmul@prod+2
  5233  050F  3000               	movlw	0
  5234  0510  00CF               	movwf	i1___flmul@prod+1
  5235  0511  3000               	movlw	0
  5236  0512  00CE               	movwf	i1___flmul@prod
  5237  0513  01C7               	clrf	i1___flmul@sign
  5238  0514  2D28               	goto	i1l661
  5239  0515                     i1l2548:	
  5240  0515  0140               	movlb	0	; select bank0
  5241  0516  0852               	movf	i1___flmul@temp,w
  5242  0517  00C2               	movwf	??i1___flmul
  5243  0518  0842               	movf	??i1___flmul,w
  5244  0519  00CD               	movwf	i1___flmul@bexp
  5245  051A  30FF               	movlw	255
  5246  051B  05CE               	andwf	i1___flmul@prod,f
  5247  051C  30FF               	movlw	255
  5248  051D  05CF               	andwf	i1___flmul@prod+1,f
  5249  051E  307F               	movlw	127
  5250  051F  05D0               	andwf	i1___flmul@prod+2,f
  5251  0520  3000               	movlw	0
  5252  0521  05D1               	andwf	i1___flmul@prod+3,f
  5253  0522  184D               	btfsc	i1___flmul@bexp,0
  5254  0523  17D0               	bsf	i1___flmul@prod+2,7
  5255  0524  364D               	lsrf	i1___flmul@bexp,w
  5256  0525  00C2               	movwf	??i1___flmul
  5257  0526  0842               	movf	??i1___flmul,w
  5258  0527  00D1               	movwf	i1___flmul@prod+3
  5259  0528                     i1l661:	
  5260  0528  0847               	movf	i1___flmul@sign,w
  5261  0529  00C2               	movwf	??i1___flmul
  5262  052A  0842               	movf	??i1___flmul,w
  5263  052B  04D1               	iorwf	i1___flmul@prod+3,f
  5264  052C  0851               	movf	i1___flmul@prod+3,w
  5265  052D  00BD               	movwf	?i1___flmul+3
  5266  052E  0850               	movf	i1___flmul@prod+2,w
  5267  052F  00BC               	movwf	?i1___flmul+2
  5268  0530  084F               	movf	i1___flmul@prod+1,w
  5269  0531  00BB               	movwf	?i1___flmul+1
  5270  0532  084E               	movf	i1___flmul@prod,w
  5271  0533  00BA               	movwf	?i1___flmul
  5272  0534  0008               	return
  5273  0535                     __end_ofi1___flmul:	
  5274                           
  5275                           	psect	text18
  5276  09A4                     __ptext18:	
  5277 ;; *************** function i1__Umul8_16 *****************
  5278 ;; Defined at:
  5279 ;;		line 4 in file "C:\Program Files (x86)\Microchip\xc8\v2.05\pic\sources\c99\common\Umul8_16.c"
  5280 ;; Parameters:    Size  Location     Type
  5281 ;;  multiplier      1    wreg     unsigned char 
  5282 ;;  multiplicand    1    0[COMMON] unsigned char 
  5283 ;; Auto vars:     Size  Location     Type
  5284 ;;  multiplier      1    8[COMMON] unsigned char 
  5285 ;;  _Umul8_16       2    6[COMMON] unsigned int 
  5286 ;;  _Umul8_16       2    4[COMMON] unsigned int 
  5287 ;; Return value:  Size  Location     Type
  5288 ;;                  2    0[COMMON] unsigned int 
  5289 ;; Registers used:
  5290 ;;		wreg, status,2, status,0
  5291 ;; Tracked objects:
  5292 ;;		On entry : 0/0
  5293 ;;		On exit  : 0/0
  5294 ;;		Unchanged: 0/0
  5295 ;; Data sizes:     COMMON   BANK0   BANK1   BANK2   BANK3   BANK4   BANK5   BANK6
  5296 ;;      Params:         2       0       0       0       0       0       0       0
  5297 ;;      Locals:         5       0       0       0       0       0       0       0
  5298 ;;      Temps:          2       0       0       0       0       0       0       0
  5299 ;;      Totals:         9       0       0       0       0       0       0       0
  5300 ;;Total ram usage:        9 bytes
  5301 ;; Hardware stack levels used:    1
  5302 ;; This function calls:
  5303 ;;		Nothing
  5304 ;; This function is called by:
  5305 ;;		i1___flmul
  5306 ;; This function uses a non-reentrant model
  5307 ;;
  5308                           
  5309                           
  5310                           ;psect for function i1__Umul8_16
  5311  09A4                     i1__Umul8_16:	
  5312                           
  5313                           ;incstack = 0
  5314                           ; Regs used in i1__Umul8_16: [wreg+status,2+status,0]
  5315                           ;i1__Umul8_16@multiplier stored from wreg
  5316  09A4  00F8               	movwf	i1__Umul8_16@multiplier
  5317  09A5  01F4               	clrf	i1__Umul8_16@product
  5318  09A6  01F5               	clrf	i1__Umul8_16@product+1
  5319  09A7  0870               	movf	i1__Umul8_16@multiplicand,w
  5320  09A8  00F2               	movwf	??i1__Umul8_16
  5321  09A9  01F3               	clrf	??i1__Umul8_16+1
  5322  09AA  0872               	movf	??i1__Umul8_16,w
  5323  09AB  00F6               	movwf	i1__Umul8_16@word_mpld
  5324  09AC  0873               	movf	??i1__Umul8_16+1,w
  5325  09AD  00F7               	movwf	i1__Umul8_16@word_mpld+1
  5326  09AE                     i1l2192:	
  5327  09AE  1C78               	btfss	i1__Umul8_16@multiplier,0
  5328  09AF  29B4               	goto	i1l706
  5329  09B0  0876               	movf	i1__Umul8_16@word_mpld,w
  5330  09B1  07F4               	addwf	i1__Umul8_16@product,f
  5331  09B2  0877               	movf	i1__Umul8_16@word_mpld+1,w
  5332  09B3  3DF5               	addwfc	i1__Umul8_16@product+1,f
  5333  09B4                     i1l706:	
  5334  09B4  3001               	movlw	1
  5335  09B5                     u292_25:	
  5336  09B5  35F6               	lslf	i1__Umul8_16@word_mpld,f
  5337  09B6  0DF7               	rlf	i1__Umul8_16@word_mpld+1,f
  5338  09B7  0B89               	decfsz	9,f
  5339  09B8  29B5               	goto	u292_25
  5340  09B9  1003               	clrc
  5341  09BA  0CF8               	rrf	i1__Umul8_16@multiplier,f
  5342  09BB  0878               	movf	i1__Umul8_16@multiplier,w
  5343  09BC  1D03               	btfss	3,2
  5344  09BD  29AE               	goto	i1l2192
  5345  09BE  0875               	movf	i1__Umul8_16@product+1,w
  5346  09BF  00F1               	movwf	?i1__Umul8_16+1
  5347  09C0  0874               	movf	i1__Umul8_16@product,w
  5348  09C1  00F0               	movwf	?i1__Umul8_16
  5349  09C2  0008               	return
  5350  09C3                     __end_ofi1__Umul8_16:	
  5351                           
  5352                           	psect	text19
  5353  0B13                     __ptext19:	
  5354 ;; *************** function i1___flge *****************
  5355 ;; Defined at:
  5356 ;;		line 4 in file "C:\Program Files (x86)\Microchip\xc8\v2.05\pic\sources\c99\common\flge.c"
  5357 ;; Parameters:    Size  Location     Type
  5358 ;;  ff1             4    0[COMMON] unsigned int 
  5359 ;;  ff2             4    4[COMMON] unsigned int 
  5360 ;; Auto vars:     Size  Location     Type
  5361 ;;		None
  5362 ;; Return value:  Size  Location     Type
  5363 ;;		None               void
  5364 ;; Registers used:
  5365 ;;		wreg, status,2, status,0
  5366 ;; Tracked objects:
  5367 ;;		On entry : 0/0
  5368 ;;		On exit  : 0/0
  5369 ;;		Unchanged: 0/0
  5370 ;; Data sizes:     COMMON   BANK0   BANK1   BANK2   BANK3   BANK4   BANK5   BANK6
  5371 ;;      Params:         8       0       0       0       0       0       0       0
  5372 ;;      Locals:         0       0       0       0       0       0       0       0
  5373 ;;      Temps:          4       0       0       0       0       0       0       0
  5374 ;;      Totals:        12       0       0       0       0       0       0       0
  5375 ;;Total ram usage:       12 bytes
  5376 ;; Hardware stack levels used:    1
  5377 ;; This function calls:
  5378 ;;		Nothing
  5379 ;; This function is called by:
  5380 ;;		_int_handler
  5381 ;; This function uses a non-reentrant model
  5382 ;;
  5383                           
  5384                           
  5385                           ;psect for function i1___flge
  5386  0B13                     i1___flge:	
  5387                           
  5388                           ;incstack = 0
  5389                           ; Regs used in i1___flge: [wreg+status,2+status,0]
  5390  0B13  3000               	movlw	0
  5391  0B14  0570               	andwf	i1___flge@ff1,w
  5392  0B15  00F8               	movwf	??i1___flge
  5393  0B16  3000               	movlw	0
  5394  0B17  0571               	andwf	i1___flge@ff1+1,w
  5395  0B18  00F9               	movwf	??i1___flge+1
  5396  0B19  3080               	movlw	128
  5397  0B1A  0572               	andwf	i1___flge@ff1+2,w
  5398  0B1B  00FA               	movwf	??i1___flge+2
  5399  0B1C  307F               	movlw	127
  5400  0B1D  0573               	andwf	i1___flge@ff1+3,w
  5401  0B1E  00FB               	movwf	??i1___flge+3
  5402  0B1F  087B               	movf	??i1___flge+3,w
  5403  0B20  047A               	iorwf	??i1___flge+2,w
  5404  0B21  0479               	iorwf	??i1___flge+1,w
  5405  0B22  0478               	iorwf	??i1___flge,w
  5406  0B23  1D03               	skipz
  5407  0B24  2B2D               	goto	i1l430
  5408  0B25  3000               	movlw	0
  5409  0B26  00F3               	movwf	i1___flge@ff1+3
  5410  0B27  3000               	movlw	0
  5411  0B28  00F2               	movwf	i1___flge@ff1+2
  5412  0B29  3000               	movlw	0
  5413  0B2A  00F1               	movwf	i1___flge@ff1+1
  5414  0B2B  3000               	movlw	0
  5415  0B2C  00F0               	movwf	i1___flge@ff1
  5416  0B2D                     i1l430:	
  5417  0B2D  3000               	movlw	0
  5418  0B2E  0574               	andwf	i1___flge@ff2,w
  5419  0B2F  00F8               	movwf	??i1___flge
  5420  0B30  3000               	movlw	0
  5421  0B31  0575               	andwf	i1___flge@ff2+1,w
  5422  0B32  00F9               	movwf	??i1___flge+1
  5423  0B33  3080               	movlw	128
  5424  0B34  0576               	andwf	i1___flge@ff2+2,w
  5425  0B35  00FA               	movwf	??i1___flge+2
  5426  0B36  307F               	movlw	127
  5427  0B37  0577               	andwf	i1___flge@ff2+3,w
  5428  0B38  00FB               	movwf	??i1___flge+3
  5429  0B39  087B               	movf	??i1___flge+3,w
  5430  0B3A  047A               	iorwf	??i1___flge+2,w
  5431  0B3B  0479               	iorwf	??i1___flge+1,w
  5432  0B3C  0478               	iorwf	??i1___flge,w
  5433  0B3D  1D03               	skipz
  5434  0B3E  2B47               	goto	i1l2266
  5435  0B3F  3000               	movlw	0
  5436  0B40  00F7               	movwf	i1___flge@ff2+3
  5437  0B41  3000               	movlw	0
  5438  0B42  00F6               	movwf	i1___flge@ff2+2
  5439  0B43  3000               	movlw	0
  5440  0B44  00F5               	movwf	i1___flge@ff2+1
  5441  0B45  3000               	movlw	0
  5442  0B46  00F4               	movwf	i1___flge@ff2
  5443  0B47                     i1l2266:	
  5444  0B47  1FF3               	btfss	i1___flge@ff1+3,7
  5445  0B48  2B61               	goto	i1l2270
  5446  0B49  3000               	movlw	0
  5447  0B4A  00F8               	movwf	??i1___flge
  5448  0B4B  3000               	movlw	0
  5449  0B4C  00F9               	movwf	??i1___flge+1
  5450  0B4D  3000               	movlw	0
  5451  0B4E  00FA               	movwf	??i1___flge+2
  5452  0B4F  3080               	movlw	128
  5453  0B50  00FB               	movwf	??i1___flge+3
  5454  0B51  0870               	movf	i1___flge@ff1,w
  5455  0B52  02F8               	subwf	??i1___flge,f
  5456  0B53  0871               	movf	i1___flge@ff1+1,w
  5457  0B54  3BF9               	subwfb	??i1___flge+1,f
  5458  0B55  0872               	movf	i1___flge@ff1+2,w
  5459  0B56  3BFA               	subwfb	??i1___flge+2,f
  5460  0B57  0873               	movf	i1___flge@ff1+3,w
  5461  0B58  3BFB               	subwfb	??i1___flge+3,f
  5462  0B59  087B               	movf	??i1___flge+3,w
  5463  0B5A  00F3               	movwf	i1___flge@ff1+3
  5464  0B5B  087A               	movf	??i1___flge+2,w
  5465  0B5C  00F2               	movwf	i1___flge@ff1+2
  5466  0B5D  0879               	movf	??i1___flge+1,w
  5467  0B5E  00F1               	movwf	i1___flge@ff1+1
  5468  0B5F  0878               	movf	??i1___flge,w
  5469  0B60  00F0               	movwf	i1___flge@ff1
  5470  0B61                     i1l2270:	
  5471  0B61  1FF7               	btfss	i1___flge@ff2+3,7
  5472  0B62  2B7B               	goto	i1l433
  5473  0B63  3000               	movlw	0
  5474  0B64  00F8               	movwf	??i1___flge
  5475  0B65  3000               	movlw	0
  5476  0B66  00F9               	movwf	??i1___flge+1
  5477  0B67  3000               	movlw	0
  5478  0B68  00FA               	movwf	??i1___flge+2
  5479  0B69  3080               	movlw	128
  5480  0B6A  00FB               	movwf	??i1___flge+3
  5481  0B6B  0874               	movf	i1___flge@ff2,w
  5482  0B6C  02F8               	subwf	??i1___flge,f
  5483  0B6D  0875               	movf	i1___flge@ff2+1,w
  5484  0B6E  3BF9               	subwfb	??i1___flge+1,f
  5485  0B6F  0876               	movf	i1___flge@ff2+2,w
  5486  0B70  3BFA               	subwfb	??i1___flge+2,f
  5487  0B71  0877               	movf	i1___flge@ff2+3,w
  5488  0B72  3BFB               	subwfb	??i1___flge+3,f
  5489  0B73  087B               	movf	??i1___flge+3,w
  5490  0B74  00F7               	movwf	i1___flge@ff2+3
  5491  0B75  087A               	movf	??i1___flge+2,w
  5492  0B76  00F6               	movwf	i1___flge@ff2+2
  5493  0B77  0879               	movf	??i1___flge+1,w
  5494  0B78  00F5               	movwf	i1___flge@ff2+1
  5495  0B79  0878               	movf	??i1___flge,w
  5496  0B7A  00F4               	movwf	i1___flge@ff2
  5497  0B7B                     i1l433:	
  5498  0B7B  3080               	movlw	128
  5499  0B7C  06F3               	xorwf	i1___flge@ff1+3,f
  5500  0B7D  3080               	movlw	128
  5501  0B7E  06F7               	xorwf	i1___flge@ff2+3,f
  5502  0B7F  0877               	movf	i1___flge@ff2+3,w
  5503  0B80  0273               	subwf	i1___flge@ff1+3,w
  5504  0B81  1D03               	skipz
  5505  0B82  0008               	return
  5506  0B83  0876               	movf	i1___flge@ff2+2,w
  5507  0B84  0272               	subwf	i1___flge@ff1+2,w
  5508  0B85  1D03               	skipz
  5509  0B86  0008               	return
  5510  0B87  0875               	movf	i1___flge@ff2+1,w
  5511  0B88  0271               	subwf	i1___flge@ff1+1,w
  5512  0B89  1D03               	skipz
  5513  0B8A  0008               	return
  5514  0B8B  0874               	movf	i1___flge@ff2,w
  5515  0B8C  0270               	subwf	i1___flge@ff1,w
  5516  0B8D  0008               	return
  5517  0B8E                     __end_ofi1___flge:	
  5518                           
  5519                           	psect	text20
  5520  0E86                     __ptext20:	
  5521 ;; *************** function i1___fldiv *****************
  5522 ;; Defined at:
  5523 ;;		line 8 in file "C:\Program Files (x86)\Microchip\xc8\v2.05\pic\sources\c99\common\sprcdiv.c"
  5524 ;; Parameters:    Size  Location     Type
  5525 ;;  a               4    0[BANK0 ] unsigned int 
  5526 ;;  b               4    4[BANK0 ] unsigned int 
  5527 ;; Auto vars:     Size  Location     Type
  5528 ;;  __fldiv         4   20[BANK0 ] unsigned long 
  5529 ;;  __fldiv         4   13[BANK0 ] unsigned long 
  5530 ;;  __fldiv         2   18[BANK0 ] int 
  5531 ;;  __fldiv         1   25[BANK0 ] unsigned char 
  5532 ;;  __fldiv         1   24[BANK0 ] unsigned char 
  5533 ;;  __fldiv         1   17[BANK0 ] unsigned char 
  5534 ;; Return value:  Size  Location     Type
  5535 ;;                  4    0[BANK0 ] unsigned char 
  5536 ;; Registers used:
  5537 ;;		wreg, status,2, status,0
  5538 ;; Tracked objects:
  5539 ;;		On entry : 0/0
  5540 ;;		On exit  : 0/0
  5541 ;;		Unchanged: 0/0
  5542 ;; Data sizes:     COMMON   BANK0   BANK1   BANK2   BANK3   BANK4   BANK5   BANK6
  5543 ;;      Params:         0       8       0       0       0       0       0       0
  5544 ;;      Locals:         0      13       0       0       0       0       0       0
  5545 ;;      Temps:          0       5       0       0       0       0       0       0
  5546 ;;      Totals:         0      26       0       0       0       0       0       0
  5547 ;;Total ram usage:       26 bytes
  5548 ;; Hardware stack levels used:    1
  5549 ;; This function calls:
  5550 ;;		Nothing
  5551 ;; This function is called by:
  5552 ;;		_int_handler
  5553 ;; This function uses a non-reentrant model
  5554 ;;
  5555                           
  5556                           
  5557                           ;psect for function i1___fldiv
  5558  0E86                     i1___fldiv:	
  5559                           
  5560                           ;incstack = 0
  5561                           ; Regs used in i1___fldiv: [wreg+status,2+status,0]
  5562  0E86  0140               	movlb	0	; select bank0
  5563  0E87  0827               	movf	i1___fldiv@b+3,w
  5564  0E88  3980               	andlw	128
  5565  0E89  00A8               	movwf	??i1___fldiv
  5566  0E8A  0828               	movf	??i1___fldiv,w
  5567  0E8B  00B1               	movwf	i1___fldiv@sign
  5568  0E8C  3527               	lslf	i1___fldiv@b+3,w
  5569  0E8D  00A8               	movwf	??i1___fldiv
  5570  0E8E  0828               	movf	??i1___fldiv,w
  5571  0E8F  00B8               	movwf	i1___fldiv@bexp
  5572  0E90  1BA6               	btfsc	i1___fldiv@b+2,7
  5573  0E91  1438               	bsf	i1___fldiv@bexp,0
  5574  0E92  0838               	movf	i1___fldiv@bexp,w
  5575  0E93  1903               	btfsc	3,2
  5576  0E94  2EA3               	goto	i1l2298
  5577  0E95  0A38               	incf	i1___fldiv@bexp,w
  5578  0E96  1D03               	btfss	3,2
  5579  0E97  2EA0               	goto	i1l2294
  5580  0E98  3000               	movlw	0
  5581  0E99  00A7               	movwf	i1___fldiv@b+3
  5582  0E9A  3000               	movlw	0
  5583  0E9B  00A6               	movwf	i1___fldiv@b+2
  5584  0E9C  3000               	movlw	0
  5585  0E9D  00A5               	movwf	i1___fldiv@b+1
  5586  0E9E  3000               	movlw	0
  5587  0E9F  00A4               	movwf	i1___fldiv@b
  5588  0EA0                     i1l2294:	
  5589  0EA0  17A6               	bsf	i1___fldiv@b+2,7
  5590  0EA1  01A7               	clrf	i1___fldiv@b+3
  5591  0EA2  2EAB               	goto	i1l2300
  5592  0EA3                     i1l2298:	
  5593  0EA3  3000               	movlw	0
  5594  0EA4  00A7               	movwf	i1___fldiv@b+3
  5595  0EA5  3000               	movlw	0
  5596  0EA6  00A6               	movwf	i1___fldiv@b+2
  5597  0EA7  3000               	movlw	0
  5598  0EA8  00A5               	movwf	i1___fldiv@b+1
  5599  0EA9  3000               	movlw	0
  5600  0EAA  00A4               	movwf	i1___fldiv@b
  5601  0EAB                     i1l2300:	
  5602  0EAB  0823               	movf	i1___fldiv@a+3,w
  5603  0EAC  3980               	andlw	128
  5604  0EAD  00A8               	movwf	??i1___fldiv
  5605  0EAE  0828               	movf	??i1___fldiv,w
  5606  0EAF  06B1               	xorwf	i1___fldiv@sign,f
  5607  0EB0  3523               	lslf	i1___fldiv@a+3,w
  5608  0EB1  00A8               	movwf	??i1___fldiv
  5609  0EB2  0828               	movf	??i1___fldiv,w
  5610  0EB3  00B9               	movwf	i1___fldiv@aexp
  5611  0EB4  1BA2               	btfsc	i1___fldiv@a+2,7
  5612  0EB5  1439               	bsf	i1___fldiv@aexp,0
  5613  0EB6  0839               	movf	i1___fldiv@aexp,w
  5614  0EB7  1903               	btfsc	3,2
  5615  0EB8  2EC7               	goto	i1l2318
  5616  0EB9  0A39               	incf	i1___fldiv@aexp,w
  5617  0EBA  1D03               	btfss	3,2
  5618  0EBB  2EC4               	goto	i1l2314
  5619  0EBC  3000               	movlw	0
  5620  0EBD  00A3               	movwf	i1___fldiv@a+3
  5621  0EBE  3000               	movlw	0
  5622  0EBF  00A2               	movwf	i1___fldiv@a+2
  5623  0EC0  3000               	movlw	0
  5624  0EC1  00A1               	movwf	i1___fldiv@a+1
  5625  0EC2  3000               	movlw	0
  5626  0EC3  00A0               	movwf	i1___fldiv@a
  5627  0EC4                     i1l2314:	
  5628  0EC4  17A2               	bsf	i1___fldiv@a+2,7
  5629  0EC5  01A3               	clrf	i1___fldiv@a+3
  5630  0EC6  2ECF               	goto	i1l609
  5631  0EC7                     i1l2318:	
  5632  0EC7  3000               	movlw	0
  5633  0EC8  00A3               	movwf	i1___fldiv@a+3
  5634  0EC9  3000               	movlw	0
  5635  0ECA  00A2               	movwf	i1___fldiv@a+2
  5636  0ECB  3000               	movlw	0
  5637  0ECC  00A1               	movwf	i1___fldiv@a+1
  5638  0ECD  3000               	movlw	0
  5639  0ECE  00A0               	movwf	i1___fldiv@a
  5640  0ECF                     i1l609:	
  5641  0ECF  0823               	movf	i1___fldiv@a+3,w
  5642  0ED0  0422               	iorwf	i1___fldiv@a+2,w
  5643  0ED1  0421               	iorwf	i1___fldiv@a+1,w
  5644  0ED2  0420               	iorwf	i1___fldiv@a,w
  5645  0ED3  1D03               	skipz
  5646  0ED4  2EEE               	goto	i1l2328
  5647  0ED5  3000               	movlw	0
  5648  0ED6  00A7               	movwf	i1___fldiv@b+3
  5649  0ED7  3000               	movlw	0
  5650  0ED8  00A6               	movwf	i1___fldiv@b+2
  5651  0ED9  3000               	movlw	0
  5652  0EDA  00A5               	movwf	i1___fldiv@b+1
  5653  0EDB  3000               	movlw	0
  5654  0EDC  00A4               	movwf	i1___fldiv@b
  5655  0EDD  3080               	movlw	128
  5656  0EDE  04A6               	iorwf	i1___fldiv@b+2,f
  5657  0EDF  307F               	movlw	127
  5658  0EE0  04A7               	iorwf	i1___fldiv@b+3,f
  5659  0EE1                     L5:	
  5660  0EE1  0831               	movf	i1___fldiv@sign,w
  5661  0EE2  00A8               	movwf	??i1___fldiv
  5662  0EE3  0828               	movf	??i1___fldiv,w
  5663  0EE4  04A7               	iorwf	i1___fldiv@b+3,f
  5664  0EE5  0827               	movf	i1___fldiv@b+3,w
  5665  0EE6  00A3               	movwf	?i1___fldiv+3
  5666  0EE7  0826               	movf	i1___fldiv@b+2,w
  5667  0EE8  00A2               	movwf	?i1___fldiv+2
  5668  0EE9  0825               	movf	i1___fldiv@b+1,w
  5669  0EEA  00A1               	movwf	?i1___fldiv+1
  5670  0EEB  0824               	movf	i1___fldiv@b,w
  5671  0EEC  00A0               	movwf	?i1___fldiv
  5672  0EED  0008               	return
  5673  0EEE                     i1l2328:	
  5674  0EEE  0838               	movf	i1___fldiv@bexp,w
  5675  0EEF  1D03               	btfss	3,2
  5676  0EF0  2EFA               	goto	i1l2334
  5677  0EF1  3000               	movlw	0
  5678  0EF2  00A3               	movwf	?i1___fldiv+3
  5679  0EF3  3000               	movlw	0
  5680  0EF4  00A2               	movwf	?i1___fldiv+2
  5681  0EF5  3000               	movlw	0
  5682  0EF6  00A1               	movwf	?i1___fldiv+1
  5683  0EF7  3000               	movlw	0
  5684  0EF8  00A0               	movwf	?i1___fldiv
  5685  0EF9  0008               	return
  5686  0EFA                     i1l2334:	
  5687  0EFA  0838               	movf	i1___fldiv@bexp,w
  5688  0EFB  00A8               	movwf	??i1___fldiv
  5689  0EFC  01A9               	clrf	??i1___fldiv+1
  5690  0EFD  0829               	movf	??i1___fldiv+1,w
  5691  0EFE  00AB               	movwf	??i1___fldiv+3
  5692  0EFF  0839               	movf	i1___fldiv@aexp,w
  5693  0F00  0228               	subwf	??i1___fldiv,w
  5694  0F01  00AA               	movwf	??i1___fldiv+2
  5695  0F02  1C03               	skipc
  5696  0F03  03AB               	decf	??i1___fldiv+3,f
  5697  0F04  082A               	movf	??i1___fldiv+2,w
  5698  0F05  3E7F               	addlw	127
  5699  0F06  00B2               	movwf	i1___fldiv@new_exp
  5700  0F07  3000               	movlw	0
  5701  0F08  3D2B               	addwfc	??i1___fldiv+3,w
  5702  0F09  00B3               	movwf	i1___fldiv@new_exp+1
  5703  0F0A  0827               	movf	i1___fldiv@b+3,w
  5704  0F0B  00B0               	movwf	i1___fldiv@rem+3
  5705  0F0C  0826               	movf	i1___fldiv@b+2,w
  5706  0F0D  00AF               	movwf	i1___fldiv@rem+2
  5707  0F0E  0825               	movf	i1___fldiv@b+1,w
  5708  0F0F  00AE               	movwf	i1___fldiv@rem+1
  5709  0F10  0824               	movf	i1___fldiv@b,w
  5710  0F11  00AD               	movwf	i1___fldiv@rem
  5711  0F12  3000               	movlw	0
  5712  0F13  00A7               	movwf	i1___fldiv@b+3
  5713  0F14  3000               	movlw	0
  5714  0F15  00A6               	movwf	i1___fldiv@b+2
  5715  0F16  3000               	movlw	0
  5716  0F17  00A5               	movwf	i1___fldiv@b+1
  5717  0F18  3000               	movlw	0
  5718  0F19  00A4               	movwf	i1___fldiv@b
  5719  0F1A  3000               	movlw	0
  5720  0F1B  00B7               	movwf	i1___fldiv@grs+3
  5721  0F1C  3000               	movlw	0
  5722  0F1D  00B6               	movwf	i1___fldiv@grs+2
  5723  0F1E  3000               	movlw	0
  5724  0F1F  00B5               	movwf	i1___fldiv@grs+1
  5725  0F20  3000               	movlw	0
  5726  0F21  00B4               	movwf	i1___fldiv@grs
  5727  0F22  01B9               	clrf	i1___fldiv@aexp
  5728  0F23                     i1l2362:	
  5729  0F23  301A               	movlw	26
  5730  0F24  0239               	subwf	i1___fldiv@aexp,w
  5731  0F25  1803               	btfsc	3,0
  5732  0F26  2F5F               	goto	i1l2364
  5733  0F27  0839               	movf	i1___fldiv@aexp,w
  5734  0F28  1903               	btfsc	3,2
  5735  0F29  2F41               	goto	i1l2354
  5736  0F2A  3001               	movlw	1
  5737  0F2B                     u310_25:	
  5738  0F2B  35AD               	lslf	i1___fldiv@rem,f
  5739  0F2C  0DAE               	rlf	i1___fldiv@rem+1,f
  5740  0F2D  0DAF               	rlf	i1___fldiv@rem+2,f
  5741  0F2E  0DB0               	rlf	i1___fldiv@rem+3,f
  5742  0F2F  0B89               	decfsz	9,f
  5743  0F30  2F2B               	goto	u310_25
  5744  0F31  3001               	movlw	1
  5745  0F32                     u311_25:	
  5746  0F32  35A4               	lslf	i1___fldiv@b,f
  5747  0F33  0DA5               	rlf	i1___fldiv@b+1,f
  5748  0F34  0DA6               	rlf	i1___fldiv@b+2,f
  5749  0F35  0DA7               	rlf	i1___fldiv@b+3,f
  5750  0F36  0B89               	decfsz	9,f
  5751  0F37  2F32               	goto	u311_25
  5752  0F38  1BB7               	btfsc	i1___fldiv@grs+3,7
  5753  0F39  1424               	bsf	i1___fldiv@b,0
  5754  0F3A  3001               	movlw	1
  5755  0F3B                     u313_25:	
  5756  0F3B  35B4               	lslf	i1___fldiv@grs,f
  5757  0F3C  0DB5               	rlf	i1___fldiv@grs+1,f
  5758  0F3D  0DB6               	rlf	i1___fldiv@grs+2,f
  5759  0F3E  0DB7               	rlf	i1___fldiv@grs+3,f
  5760  0F3F  0B89               	decfsz	9,f
  5761  0F40  2F3B               	goto	u313_25
  5762  0F41                     i1l2354:	
  5763  0F41  0823               	movf	i1___fldiv@a+3,w
  5764  0F42  0230               	subwf	i1___fldiv@rem+3,w
  5765  0F43  1D03               	skipz
  5766  0F44  2F4F               	goto	u314_25
  5767  0F45  0822               	movf	i1___fldiv@a+2,w
  5768  0F46  022F               	subwf	i1___fldiv@rem+2,w
  5769  0F47  1D03               	skipz
  5770  0F48  2F4F               	goto	u314_25
  5771  0F49  0821               	movf	i1___fldiv@a+1,w
  5772  0F4A  022E               	subwf	i1___fldiv@rem+1,w
  5773  0F4B  1D03               	skipz
  5774  0F4C  2F4F               	goto	u314_25
  5775  0F4D  0820               	movf	i1___fldiv@a,w
  5776  0F4E  022D               	subwf	i1___fldiv@rem,w
  5777  0F4F                     u314_25:	
  5778  0F4F  1C03               	skipc
  5779  0F50  2F5A               	goto	i1l2360
  5780  0F51  1737               	bsf	i1___fldiv@grs+3,6
  5781  0F52  0820               	movf	i1___fldiv@a,w
  5782  0F53  02AD               	subwf	i1___fldiv@rem,f
  5783  0F54  0821               	movf	i1___fldiv@a+1,w
  5784  0F55  3BAE               	subwfb	i1___fldiv@rem+1,f
  5785  0F56  0822               	movf	i1___fldiv@a+2,w
  5786  0F57  3BAF               	subwfb	i1___fldiv@rem+2,f
  5787  0F58  0823               	movf	i1___fldiv@a+3,w
  5788  0F59  3BB0               	subwfb	i1___fldiv@rem+3,f
  5789  0F5A                     i1l2360:	
  5790  0F5A  3001               	movlw	1
  5791  0F5B  00A8               	movwf	??i1___fldiv
  5792  0F5C  0828               	movf	??i1___fldiv,w
  5793  0F5D  07B9               	addwf	i1___fldiv@aexp,f
  5794  0F5E  2F23               	goto	i1l2362
  5795  0F5F                     i1l2364:	
  5796  0F5F  0830               	movf	i1___fldiv@rem+3,w
  5797  0F60  042F               	iorwf	i1___fldiv@rem+2,w
  5798  0F61  042E               	iorwf	i1___fldiv@rem+1,w
  5799  0F62  042D               	iorwf	i1___fldiv@rem,w
  5800  0F63  1D03               	btfss	3,2
  5801  0F64  1434               	bsf	i1___fldiv@grs,0
  5802  0F65                     i1l2378:	
  5803  0F65  1BA6               	btfsc	i1___fldiv@b+2,7
  5804  0F66  2F7C               	goto	i1l2380
  5805  0F67  3001               	movlw	1
  5806  0F68                     u317_25:	
  5807  0F68  35A4               	lslf	i1___fldiv@b,f
  5808  0F69  0DA5               	rlf	i1___fldiv@b+1,f
  5809  0F6A  0DA6               	rlf	i1___fldiv@b+2,f
  5810  0F6B  0DA7               	rlf	i1___fldiv@b+3,f
  5811  0F6C  0B89               	decfsz	9,f
  5812  0F6D  2F68               	goto	u317_25
  5813  0F6E  1BB7               	btfsc	i1___fldiv@grs+3,7
  5814  0F6F  1424               	bsf	i1___fldiv@b,0
  5815  0F70  3001               	movlw	1
  5816  0F71                     u319_25:	
  5817  0F71  35B4               	lslf	i1___fldiv@grs,f
  5818  0F72  0DB5               	rlf	i1___fldiv@grs+1,f
  5819  0F73  0DB6               	rlf	i1___fldiv@grs+2,f
  5820  0F74  0DB7               	rlf	i1___fldiv@grs+3,f
  5821  0F75  0B89               	decfsz	9,f
  5822  0F76  2F71               	goto	u319_25
  5823  0F77  30FF               	movlw	255
  5824  0F78  07B2               	addwf	i1___fldiv@new_exp,f
  5825  0F79  30FF               	movlw	255
  5826  0F7A  3DB3               	addwfc	i1___fldiv@new_exp+1,f
  5827  0F7B  2F65               	goto	i1l2378
  5828  0F7C                     i1l2380:	
  5829  0F7C  01B9               	clrf	i1___fldiv@aexp
  5830  0F7D  1FB7               	btfss	i1___fldiv@grs+3,7
  5831  0F7E  2F95               	goto	i1l2390
  5832  0F7F  30FF               	movlw	255
  5833  0F80  0534               	andwf	i1___fldiv@grs,w
  5834  0F81  00A8               	movwf	??i1___fldiv
  5835  0F82  30FF               	movlw	255
  5836  0F83  0535               	andwf	i1___fldiv@grs+1,w
  5837  0F84  00A9               	movwf	??i1___fldiv+1
  5838  0F85  30FF               	movlw	255
  5839  0F86  0536               	andwf	i1___fldiv@grs+2,w
  5840  0F87  00AA               	movwf	??i1___fldiv+2
  5841  0F88  307F               	movlw	127
  5842  0F89  0537               	andwf	i1___fldiv@grs+3,w
  5843  0F8A  00AB               	movwf	??i1___fldiv+3
  5844  0F8B  082B               	movf	??i1___fldiv+3,w
  5845  0F8C  042A               	iorwf	??i1___fldiv+2,w
  5846  0F8D  0429               	iorwf	??i1___fldiv+1,w
  5847  0F8E  0428               	iorwf	??i1___fldiv,w
  5848  0F8F  1903               	skipnz
  5849  0F90  1824               	btfsc	i1___fldiv@b,0
  5850  0F91  2F93               	goto	i1l2386
  5851  0F92  2F95               	goto	i1l2390
  5852  0F93                     i1l2386:	
  5853  0F93  01B9               	clrf	i1___fldiv@aexp
  5854  0F94  0AB9               	incf	i1___fldiv@aexp,f
  5855  0F95                     i1l2390:	
  5856  0F95  0839               	movf	i1___fldiv@aexp,w
  5857  0F96  1903               	btfsc	3,2
  5858  0F97  2FBE               	goto	i1l2400
  5859  0F98  3001               	movlw	1
  5860  0F99  07A4               	addwf	i1___fldiv@b,f
  5861  0F9A  3000               	movlw	0
  5862  0F9B  3DA5               	addwfc	i1___fldiv@b+1,f
  5863  0F9C  3000               	movlw	0
  5864  0F9D  3DA6               	addwfc	i1___fldiv@b+2,f
  5865  0F9E  3000               	movlw	0
  5866  0F9F  3DA7               	addwfc	i1___fldiv@b+3,f
  5867  0FA0  1C27               	btfss	i1___fldiv@b+3,0
  5868  0FA1  2FBE               	goto	i1l2400
  5869  0FA2  0824               	movf	i1___fldiv@b,w
  5870  0FA3  00A8               	movwf	??i1___fldiv
  5871  0FA4  0825               	movf	i1___fldiv@b+1,w
  5872  0FA5  00A9               	movwf	??i1___fldiv+1
  5873  0FA6  0826               	movf	i1___fldiv@b+2,w
  5874  0FA7  00AA               	movwf	??i1___fldiv+2
  5875  0FA8  0827               	movf	i1___fldiv@b+3,w
  5876  0FA9  00AB               	movwf	??i1___fldiv+3
  5877  0FAA  3001               	movlw	1
  5878  0FAB  00AC               	movwf	??i1___fldiv+4
  5879  0FAC                     u326_25:	
  5880  0FAC  37AB               	asrf	??i1___fldiv+3,f
  5881  0FAD  0CAA               	rrf	??i1___fldiv+2,f
  5882  0FAE  0CA9               	rrf	??i1___fldiv+1,f
  5883  0FAF  0CA8               	rrf	??i1___fldiv,f
  5884  0FB0  0BAC               	decfsz	??i1___fldiv+4,f
  5885  0FB1  2FAC               	goto	u326_25
  5886  0FB2  082B               	movf	??i1___fldiv+3,w
  5887  0FB3  00A7               	movwf	i1___fldiv@b+3
  5888  0FB4  082A               	movf	??i1___fldiv+2,w
  5889  0FB5  00A6               	movwf	i1___fldiv@b+2
  5890  0FB6  0829               	movf	??i1___fldiv+1,w
  5891  0FB7  00A5               	movwf	i1___fldiv@b+1
  5892  0FB8  0828               	movf	??i1___fldiv,w
  5893  0FB9  00A4               	movwf	i1___fldiv@b
  5894  0FBA  3001               	movlw	1
  5895  0FBB  07B2               	addwf	i1___fldiv@new_exp,f
  5896  0FBC  3000               	movlw	0
  5897  0FBD  3DB3               	addwfc	i1___fldiv@new_exp+1,f
  5898  0FBE                     i1l2400:	
  5899  0FBE  0833               	movf	i1___fldiv@new_exp+1,w
  5900  0FBF  3A80               	xorlw	128
  5901  0FC0  00A8               	movwf	??i1___fldiv
  5902  0FC1  3080               	movlw	128
  5903  0FC2  0228               	subwf	??i1___fldiv,w
  5904  0FC3  1D03               	skipz
  5905  0FC4  2FC7               	goto	u327_25
  5906  0FC5  30FF               	movlw	255
  5907  0FC6  0232               	subwf	i1___fldiv@new_exp,w
  5908  0FC7                     u327_25:	
  5909  0FC7  1C03               	skipc
  5910  0FC8  2FD6               	goto	i1l630
  5911  0FC9  30FF               	movlw	255
  5912  0FCA  0140               	movlb	0	; select bank0
  5913  0FCB  00B2               	movwf	i1___fldiv@new_exp
  5914  0FCC  3000               	movlw	0
  5915  0FCD  00B3               	movwf	i1___fldiv@new_exp+1
  5916  0FCE  3000               	movlw	0
  5917  0FCF  00A7               	movwf	i1___fldiv@b+3
  5918  0FD0  3000               	movlw	0
  5919  0FD1  00A6               	movwf	i1___fldiv@b+2
  5920  0FD2  3000               	movlw	0
  5921  0FD3  00A5               	movwf	i1___fldiv@b+1
  5922  0FD4  3000               	movlw	0
  5923  0FD5  00A4               	movwf	i1___fldiv@b
  5924  0FD6                     i1l630:	
  5925  0FD6  0140               	movlb	0	; select bank0
  5926  0FD7  0833               	movf	i1___fldiv@new_exp+1,w
  5927  0FD8  3A80               	xorlw	128
  5928  0FD9  00A8               	movwf	??i1___fldiv
  5929  0FDA  3080               	movlw	128
  5930  0FDB  0228               	subwf	??i1___fldiv,w
  5931  0FDC  1D03               	skipz
  5932  0FDD  2FE0               	goto	u328_25
  5933  0FDE  3001               	movlw	1
  5934  0FDF  0232               	subwf	i1___fldiv@new_exp,w
  5935  0FE0                     u328_25:	
  5936  0FE0  1803               	skipnc
  5937  0FE1  2FEE               	goto	i1l631
  5938  0FE2  0140               	movlb	0	; select bank0
  5939  0FE3  01B2               	clrf	i1___fldiv@new_exp
  5940  0FE4  01B3               	clrf	i1___fldiv@new_exp+1
  5941  0FE5  3000               	movlw	0
  5942  0FE6  00A7               	movwf	i1___fldiv@b+3
  5943  0FE7  3000               	movlw	0
  5944  0FE8  00A6               	movwf	i1___fldiv@b+2
  5945  0FE9  3000               	movlw	0
  5946  0FEA  00A5               	movwf	i1___fldiv@b+1
  5947  0FEB  3000               	movlw	0
  5948  0FEC  00A4               	movwf	i1___fldiv@b
  5949  0FED  01B1               	clrf	i1___fldiv@sign
  5950  0FEE                     i1l631:	
  5951  0FEE  0140               	movlb	0	; select bank0
  5952  0FEF  0832               	movf	i1___fldiv@new_exp,w
  5953  0FF0  00A8               	movwf	??i1___fldiv
  5954  0FF1  0828               	movf	??i1___fldiv,w
  5955  0FF2  00B8               	movwf	i1___fldiv@bexp
  5956  0FF3  1C38               	btfss	i1___fldiv@bexp,0
  5957  0FF4  2FF7               	goto	i1l2414
  5958  0FF5  17A6               	bsf	i1___fldiv@b+2,7
  5959  0FF6  2FFB               	goto	i1l633
  5960  0FF7                     i1l2414:	
  5961  0FF7  307F               	movlw	127
  5962  0FF8  00A8               	movwf	??i1___fldiv
  5963  0FF9  0828               	movf	??i1___fldiv,w
  5964  0FFA  05A6               	andwf	i1___fldiv@b+2,f
  5965  0FFB                     i1l633:	
  5966  0FFB  3638               	lsrf	i1___fldiv@bexp,w
  5967  0FFC  00A8               	movwf	??i1___fldiv
  5968  0FFD  0828               	movf	??i1___fldiv,w
  5969  0FFE  00A7               	movwf	i1___fldiv@b+3
  5970  0FFF  2EE1               	goto	L5
  5971  1000                     __end_ofi1___fldiv:	
  5972  007E                     btemp	set	126	;btemp
  5973  007E                     int$flags	set	126
  5974  007E                     wtemp0	set	126


Data Sizes:
    Strings     0
    Constant    8
    Data        0
    BSS         29
    Persistent  33
    Stack       0

Auto Spaces:
    Space          Size  Autos    Used
    COMMON           14     14      14
    BANK0            80     58      62
    BANK1            80     80      80
    BANK2            80     14      40
    BANK3            80      0       0
    BANK4            80      0       0
    BANK5            80      0       0
    BANK6            16      0       0

Pointer List with Targets:

    None.

Critical Paths under _main in COMMON

    None.

Critical Paths under _int_handler in COMMON

    _int_handler->i1___xxtofl
    i1___flmul->i1___xxtofl
    i1___fldiv->i1___xxtofl

Critical Paths under _main in BANK0

    None.

Critical Paths under _int_handler in BANK0

    _int_handler->i1___flmul
    i1___flmul->i1___fldiv

Critical Paths under _main in BANK1

    _main->_ErrHanler
    _initDIA->_read_DIA
    _ErrHanler->_temperatureCheck
    _temperatureCheck->_getNTCV
    _getNTCV->___flmul
    ___flmul->___fldiv
    ___fldiv->___xxtofl

Critical Paths under _int_handler in BANK1

    None.

Critical Paths under _main in BANK2

    _temperatureCheck->_getNTCV

Critical Paths under _int_handler in BANK2

    None.

Critical Paths under _main in BANK3

    None.

Critical Paths under _int_handler in BANK3

    None.

Critical Paths under _main in BANK4

    None.

Critical Paths under _int_handler in BANK4

    None.

Critical Paths under _main in BANK5

    None.

Critical Paths under _int_handler in BANK5

    None.

Critical Paths under _main in BANK6

    None.

Critical Paths under _int_handler in BANK6

    None.

Call Graph Tables:

 ---------------------------------------------------------------------------------
 (Depth) Function   	        Calls       Base Space   Used Autos Params    Refs
 ---------------------------------------------------------------------------------
 (0) _main                                                 8     4      4   13289
                                             74 BANK1      6     2      4
                                             12 BANK2      2     2      0
                          _ErrHanler
                     _HeartBeatFlush
                               _init
                      _ledFaultCheck
                   _temperatureCheck
 ---------------------------------------------------------------------------------
 (1) _init                                                 0     0      0     652
                            _initDIA
 ---------------------------------------------------------------------------------
 (2) _initDIA                                              0     0      0     652
                           _read_DIA
 ---------------------------------------------------------------------------------
 (3) _read_DIA                                             2     0      2     652
                                              0 BANK1      2     0      2
 ---------------------------------------------------------------------------------
 (1) _HeartBeatFlush                                       2     2      0       0
                                              0 BANK1      2     2      0
 ---------------------------------------------------------------------------------
 (1) _ErrHanler                                            2     2      0    6481
                                             72 BANK1      2     2      0
                           _ErrFlush
                      _ledFaultCheck
                   _temperatureCheck
 ---------------------------------------------------------------------------------
 (1) _temperatureCheck                                     1     1      0    6131
                                             71 BANK1      1     1      0
                             ___flge
                            _getNTCV
 ---------------------------------------------------------------------------------
 (2) _getNTCV                                             17    13      4    5241
                                             66 BANK1      5     1      4
                                              0 BANK2     12    12      0
                            ___fldiv
                            ___flmul
                           ___xxtofl
 ---------------------------------------------------------------------------------
 (3) ___xxtofl                                            14    10      4     650
                                              0 BANK1     14    10      4
 ---------------------------------------------------------------------------------
 (3) ___flmul                                             26    18      8    2821
                                             40 BANK1     26    18      8
                          __Umul8_16
                            ___fldiv (ARG)
                           ___xxtofl (ARG)
 ---------------------------------------------------------------------------------
 (4) __Umul8_16                                            9     7      2     799
                                              0 BANK1      9     7      2
 ---------------------------------------------------------------------------------
 (3) ___fldiv                                             26    18      8    1525
                                             14 BANK1     26    18      8
                           ___xxtofl (ARG)
 ---------------------------------------------------------------------------------
 (2) ___flge                                              12     4      8     890
                                              0 BANK1     12     4      8
 ---------------------------------------------------------------------------------
 (1) _ledFaultCheck                                        1     1      0       0
                                              0 BANK1      1     1      0
 ---------------------------------------------------------------------------------
 (2) _ErrFlush                                             6     4      2     350
                                              0 BANK1      6     4      2
 ---------------------------------------------------------------------------------
 Estimated maximum stack depth 4
 ---------------------------------------------------------------------------------
 (Depth) Function   	        Calls       Base Space   Used Autos Params    Refs
 ---------------------------------------------------------------------------------
 (6) _int_handler                                          6     6      0    3671
                                             52 BANK0      6     6      0
                          i1___fldiv
                           i1___flge
                          i1___flmul
                         i1___xxtofl
 ---------------------------------------------------------------------------------
 (7) i1___xxtofl                                          14    10      4     374
                                              0 COMMON    14    10      4
 ---------------------------------------------------------------------------------
 (7) i1___flmul                                           26    18      8    1867
                                             26 BANK0     26    18      8
                        i1__Umul8_16
                          i1___fldiv (ARG)
                         i1___xxtofl (ARG)
 ---------------------------------------------------------------------------------
 (8) i1__Umul8_16                                          9     7      2     349
                                              0 COMMON     9     7      2
 ---------------------------------------------------------------------------------
 (7) i1___flge                                            12     4      8     234
                                              0 COMMON    12     4      8
 ---------------------------------------------------------------------------------
 (7) i1___fldiv                                           26    18      8    1173
                                              0 BANK0     26    18      8
                         i1___xxtofl (ARG)
 ---------------------------------------------------------------------------------
 Estimated maximum stack depth 8
 ---------------------------------------------------------------------------------

 Call Graph Graphs:

 _main (ROOT)
   _ErrHanler
     _ErrFlush
     _ledFaultCheck
     _temperatureCheck
       ___flge
       _getNTCV
         ___fldiv
           ___xxtofl (ARG)
         ___flmul
           __Umul8_16
           ___fldiv (ARG)
             ___xxtofl (ARG)
           ___xxtofl (ARG)
         ___xxtofl
   _HeartBeatFlush
   _init
     _initDIA
       _read_DIA
   _ledFaultCheck
   _temperatureCheck
     ___flge
     _getNTCV
       ___fldiv
         ___xxtofl (ARG)
       ___flmul
         __Umul8_16
         ___fldiv (ARG)
           ___xxtofl (ARG)
         ___xxtofl (ARG)
       ___xxtofl

 _int_handler (ROOT)
   i1___fldiv
     i1___xxtofl (ARG)
   i1___flge
   i1___flmul
     i1__Umul8_16
     i1___fldiv (ARG)
       i1___xxtofl (ARG)
     i1___xxtofl (ARG)
   i1___xxtofl

 Address spaces:
Name               Size   Autos  Total    Cost      Usage
BIGRAM             1F0      0       0       0        0.0%
NULL                 0      0       0       0        0.0%
CODE                 0      0       0       0        0.0%
BITCOMMON            E      0       0       1        0.0%
BITSFR0              0      0       0       1        0.0%
SFR0                 0      0       0       1        0.0%
COMMON               E      E       E       2      100.0%
BITSFR1              0      0       0       2        0.0%
SFR1                 0      0       0       2        0.0%
BITSFR2              0      0       0       3        0.0%
SFR2                 0      0       0       3        0.0%
STACK                0      0       0       3        0.0%
BITSFR3              0      0       0       4        0.0%
SFR3                 0      0       0       4        0.0%
ABS                  0      0      C4       4        0.0%
BITBANK0            50      0       0       5        0.0%
BITSFR4              0      0       0       5        0.0%
SFR4                 0      0       0       5        0.0%
BANK0               50     3A      3E       6       77.5%
BITSFR5              0      0       0       6        0.0%
SFR5                 0      0       0       6        0.0%
BITBANK1            50      0       0       7        0.0%
BITSFR6              0      0       0       7        0.0%
SFR6                 0      0       0       7        0.0%
BANK1               50     50      50       8      100.0%
BITSFR7              0      0       0       8        0.0%
SFR7                 0      0       0       8        0.0%
BITBANK2            50      0       0       9        0.0%
BITSFR8              0      0       0       9        0.0%
SFR8                 0      0       0       9        0.0%
BANK2               50      E      28      10       50.0%
BITSFR9              0      0       0      10        0.0%
SFR9                 0      0       0      10        0.0%
BITBANK3            50      0       0      11        0.0%
BITSFR10             0      0       0      11        0.0%
SFR10                0      0       0      11        0.0%
BANK3               50      0       0      12        0.0%
BITSFR11             0      0       0      12        0.0%
SFR11                0      0       0      12        0.0%
BITBANK4            50      0       0      13        0.0%
BITSFR12             0      0       0      13        0.0%
SFR12                0      0       0      13        0.0%
BANK4               50      0       0      14        0.0%
BITSFR13             0      0       0      14        0.0%
SFR13                0      0       0      14        0.0%
BITBANK5            50      0       0      15        0.0%
BITSFR14             0      0       0      15        0.0%
SFR14                0      0       0      15        0.0%
BANK5               50      0       0      16        0.0%
BITSFR15             0      0       0      16        0.0%
SFR15                0      0       0      16        0.0%
BITBANK6            10      0       0      17        0.0%
BITSFR16             0      0       0      17        0.0%
SFR16                0      0       0      17        0.0%
BANK6               10      0       0      18        0.0%
BITSFR17             0      0       0      18        0.0%
SFR17                0      0       0      18        0.0%
BITSFR18             0      0       0      19        0.0%
SFR18                0      0       0      19        0.0%
DATA                 0      0      C4      19        0.0%
BITSFR19             0      0       0      20        0.0%
SFR19                0      0       0      20        0.0%
BITSFR20             0      0       0      21        0.0%
SFR20                0      0       0      21        0.0%
BITSFR21             0      0       0      22        0.0%
SFR21                0      0       0      22        0.0%
BITSFR22             0      0       0      23        0.0%
SFR22                0      0       0      23        0.0%
BITSFR23             0      0       0      24        0.0%
SFR23                0      0       0      24        0.0%
BITSFR24             0      0       0      25        0.0%
SFR24                0      0       0      25        0.0%
BITSFR25             0      0       0      26        0.0%
SFR25                0      0       0      26        0.0%
BITSFR26             0      0       0      27        0.0%
SFR26                0      0       0      27        0.0%
BITSFR27             0      0       0      28        0.0%
SFR27                0      0       0      28        0.0%
BITSFR28             0      0       0      29        0.0%
SFR28                0      0       0      29        0.0%
BITSFR29             0      0       0      30        0.0%
SFR29                0      0       0      30        0.0%
BITSFR30             0      0       0      31        0.0%
SFR30                0      0       0      31        0.0%
BITSFR31             0      0       0      32        0.0%
SFR31                0      0       0      32        0.0%
BITSFR32             0      0       0      33        0.0%
SFR32                0      0       0      33        0.0%
BITSFR33             0      0       0      34        0.0%
SFR33                0      0       0      34        0.0%
BITSFR34             0      0       0      35        0.0%
SFR34                0      0       0      35        0.0%
BITSFR35             0      0       0      36        0.0%
SFR35                0      0       0      36        0.0%
BITSFR36             0      0       0      37        0.0%
SFR36                0      0       0      37        0.0%
BITSFR37             0      0       0      38        0.0%
SFR37                0      0       0      38        0.0%
BITSFR38             0      0       0      39        0.0%
SFR38                0      0       0      39        0.0%
BITSFR39             0      0       0      40        0.0%
SFR39                0      0       0      40        0.0%
BITSFR40             0      0       0      41        0.0%
SFR40                0      0       0      41        0.0%
BITSFR41             0      0       0      42        0.0%
SFR41                0      0       0      42        0.0%
BITSFR42             0      0       0      43        0.0%
SFR42                0      0       0      43        0.0%
BITSFR43             0      0       0      44        0.0%
SFR43                0      0       0      44        0.0%
BITSFR44             0      0       0      45        0.0%
SFR44                0      0       0      45        0.0%
BITSFR45             0      0       0      46        0.0%
SFR45                0      0       0      46        0.0%
BITSFR46             0      0       0      47        0.0%
SFR46                0      0       0      47        0.0%
BITSFR47             0      0       0      48        0.0%
SFR47                0      0       0      48        0.0%
BITSFR48             0      0       0      49        0.0%
SFR48                0      0       0      49        0.0%
BITSFR49             0      0       0      50        0.0%
SFR49                0      0       0      50        0.0%
BITSFR50             0      0       0      51        0.0%
SFR50                0      0       0      51        0.0%
BITSFR51             0      0       0      52        0.0%
SFR51                0      0       0      52        0.0%
BITSFR52             0      0       0      53        0.0%
SFR52                0      0       0      53        0.0%
BITSFR53             0      0       0      54        0.0%
SFR53                0      0       0      54        0.0%
BITSFR54             0      0       0      55        0.0%
SFR54                0      0       0      55        0.0%
BITSFR55             0      0       0      56        0.0%
SFR55                0      0       0      56        0.0%
BITSFR56             0      0       0      57        0.0%
SFR56                0      0       0      57        0.0%
BITSFR57             0      0       0      58        0.0%
SFR57                0      0       0      58        0.0%
BITSFR58             0      0       0      59        0.0%
SFR58                0      0       0      59        0.0%
BITSFR59             0      0       0      60        0.0%
SFR59                0      0       0      60        0.0%
BITSFR60             0      0       0      61        0.0%
SFR60                0      0       0      61        0.0%
BITSFR61             0      0       0      62        0.0%
SFR61                0      0       0      62        0.0%
BITSFR62             0      0       0      63        0.0%
SFR62                0      0       0      63        0.0%
BITSFR63             0      0       0      64        0.0%
SFR63                0      0       0      64        0.0%


Microchip Technology PIC Macro Assembler V2.05 build -831301201 
Symbol Table                                                                                   Thu Jul 16 15:29:45 2020

             ___fldiv@aexp 00C7               ___fldiv@bexp 00C6               ___fldiv@sign 00BF  
              i1___fldiv@a 0020                i1___fldiv@b 0024                __CFG_CP$OFF 0000  
                       l87 099A                         l96 0AEF                i1___flmul@a 003E  
              i1___flmul@b 003A               i1___flge@ff1 0070               i1___flge@ff2 0074  
      __Umul8_16@word_mpld 00A6                 i1___xxtofl 0C8A                        l117 0A3E  
                      l143 07BE    __size_of_HeartBeatFlush 0022                        l171 0AA9  
                      l180 0AA2                        l430 0BA9                        l433 0BF7  
                      l700 0D87                        l701 0D91                        l630 0685  
                      l631 069D                        l633 06AA                        l609 057E  
                      l706 09D4                        l661 02FC                        l693 0D73  
                      l687 0D3D                        _GIE 005F               __CFG_BORV$LO 0000  
                      wreg 0009               ___flmul@aexp 00DA               ___flmul@bexp 00DB  
             ___flmul@sign 00D5               ___flmul@temp 00E0               ___flmul@prod 00DC  
            __CFG_BBEN$OFF 0000               __CFG_LVP$OFF 0000               __CFG_ZCD$OFF 0000  
            i1___fldiv@grs 0034              i1___fldiv@rem 002D                       l2000 02BD  
                     l2010 02E9                       l2004 02D2                       l2040 0D60  
                     l2104 072B                       l2122 0BDD                       l2050 0D78  
                     l2034 0D4C                       l2106 0733                       l2028 0D35  
                     l2118 0BC3                       l2062 0DAC                       l2038 0D50  
                     l2048 0D85                       l2154 0E0F                       l2242 07C2  
                     l2092 06C2                       l2164 0E60                       l2244 07CC  
                     l2252 07E7                       l2094 06CA                       l2158 0E39  
                     l2246 07D6                       l2168 0E83                       l2248 07E0  
                     l2178 0A19                       l1732 09CE                       l1900 0101  
                     l1822 0609                       l1840 0614                       l1816 05F0  
                     l1824 05D2                       l1760 0552                       l1842 062B  
                     l1826 060E                       l1762 055A                       l1914 011A  
                     l1852 0644                       l1780 0576                       l1756 054F  
                     l1916 011C                       l2740 07F0                       l2660 0A95  
                     l1862 066D                       l1790 059D                       l1926 0132  
                     l1918 0124                       l2662 0A99                       l2646 0A75  
                     l2670 0AA9                       l1848 0642                       l1776 0573  
                     l2738 0AB3                       l2666 0AA6                       l2658 0A90  
                     l1876 06A6                       l1796 05A9                       l1980 027B  
                     l1990 0294                       l1896 00F7                       l1986 0292  
                     l1978 0264                       l1898 00F9                       _ADFM 04F7  
                     _T0EN 2CF7                       u2105 05EA                       u2115 05FE  
                     u2145 0617                       u2235 065B                       u2075 05DA  
                     u2245 0676                       u2165 0620                       u2085 05E1  
                     u2405 0267                       u2255 068F                       u2505 02C6  
                     u2425 0270                       u2515 02DC                       u2355 01A8  
                     u2365 01D7                       u2605 0D7F                       u2375 022D  
                     u2385 0244                       u2395 0253                       u2645 0D99  
                     u2565 0D59                       u2495 02AB                       u2585 0D6D  
                     u2755 0A48                       u1965 09D5                       u3907 09FB  
                     u3917 06BD                       u3927 06C6                       u3937 0726  
                     u3865 0A87                       u3947 072F                       u3957 0A33  
                     u3967 0A52                       u3977 0A61                       u3897 09EC  
                     _main 0A6E                       _init 0ABD              i1___flmul@grs 0048  
                     fsr0h 0005                       indf0 0000                       fsr0l 0004  
                     btemp 007E                       start 00CB            ___fldiv@new_exp 00C0  
            __CFG_CSWEN$ON 0000              __CFG_MCLRE$ON 0000             i1___fldiv@aexp 0039  
           i1___fldiv@bexp 0038             i1___fldiv@sign 0031          ?_temperatureCheck 0070  
                    ?_main 00EA                      ?_init 0070            __end_of___fldiv 06AF  
                    _ADRES 009B              __CFG_WDTE$OFF 0000            __end_of___flmul 0309  
                    i1l160 0056                      i1l154 003A                      i1l163 00C6  
                    i1l165 00C9                      i1l157 0039                      i1l430 0B2D  
                    i1l433 0B7B                      i1l700 0CF1                      i1l701 0CFB  
                    i1l630 0FD6                      i1l631 0FEE                      i1l633 0FFB  
                    i1l609 0ECF                      i1l706 09B4                      i1l661 0528  
                    i1l693 0CDD                      i1l687 0CA7                      _FVREN 4867  
       ??_temperatureCheck 00E7            __end_of_getNTCV 07B8             __CFG_FCMEN$OFF 0000  
             ?_int_handler 0070              __CFG_WRTB$OFF 0000              __CFG_WRTC$OFF 0000  
          __end_of_initDIA 0C8A             i1___flmul@aexp 004C             i1___flmul@bexp 004D  
           i1___flmul@sign 0047             i1___flmul@temp 0052             i1___flmul@prod 004E  
         __end_ofi1___flge 0B8E             __CFG_BOREN$OFF 0000                      status 0003  
                    wtemp0 007E         __size_ofi1___fldiv 017A         __size_ofi1___flmul 022C  
          __initialization 00CD           __end_of_ErrFlush 0A6E               __end_of_main 0ABD  
             __end_of_init 0B13             __CFG_SAFEN$OFF 0000                     ??_main 00EE  
              ?i1___xxtofl 0070                     ??_init 00A2                read_DIA@Add 00A0  
       int_handler@voltage 0056         __size_of_ErrHanler 0047                     _IOCAF7 F9FF  
                   _IOCAN7 F9F7                     i1l2300 0EAB                     i1l2400 0FBE  
                   i1l2314 0EC4                     i1l2414 0FF7                     i1l2334 0EFA  
                   i1l2318 0EC7                     i1l2270 0B61                     i1l2360 0F5A  
                   i1l2328 0EEE                     i1l2192 09AE                     i1l2600 0D16  
                   i1l2354 0F41                     i1l2362 0F23                     i1l2266 0B47  
                   i1l2434 0323                     i1l2380 0F7C                     i1l2364 0F5F  
                   i1l2524 04BE                     i1l2516 0490                     i1l2452 0346  
                   i1l2436 0325                     i1l2390 0F95                     i1l2294 0EA0  
                   i1l2542 04FE                     i1l2518 04A7                     i1l2454 0348  
                   i1l2438 032D                     i1l2528 04C0                     i1l2464 035E  
                   i1l2456 0350                     i1l2632 0061                     i1l2386 0F93  
                   i1l2378 0F65                     i1l2298 0EA3                     i1l2538 04E9  
                   i1l2618 0035                     i1l2548 0515                     i1l2572 0CB6  
                   i1l2566 0C9F                     i1l2576 0CBA                     i1l2586 0CEF  
                   i1l2578 0CCA                     i1l2588 0CE2             __CFG_WDTCCS$SC 0000  
                   u310_25 0F2B                     u311_25 0F32                     u313_25 0F3B  
                   u314_25 0F4F                     u340_25 0459                     u317_25 0F68  
                   u341_25 0470                     u326_25 0FAC                     u342_25 047F  
                   u327_25 0FC7                     u319_25 0F71                     u343_25 0493  
                   u328_25 0FE0                     u352_25 04D7                     _FVRRDY 4866  
                   u353_25 04F2                     u345_25 049C                     u361_25 0CD7  
                   u354_25 0508                     u338_25 03D4                     u339_25 0403  
                   u363_25 0CE9                     u292_25 09B5                     u374_20 0029  
                   u375_24 002B                     u367_25 0D03                     u359_25 0CC3  
                   u376_20 0033                     u398_27 0017                     _TMR0IE 38B5  
                   _TMR0IF 3865           __end_of___xxtofl 0DB5             __CFG_PWRTE$OFF 0000  
                   ___flge 0B8E                  ??___fldiv 00B6                  ??___flmul 00D0  
         __end_of_read_DIA 09A4                  ??_getNTCV 00E6             _HeartBeatFlush 09E3  
                ??_initDIA 00A2          __end_ofi1___fldiv 1000          __end_ofi1___flmul 0535  
       __size_of__Umul8_16 0020                 ___flge@ff1 00A0                 ___flge@ff2 00A4  
             ___xxtofl@arg 00AA               ___xxtofl@exp 00A9               ___xxtofl@val 00A0  
  __end_of__initialization 00D9        __size_ofi1___xxtofl 0095               _getNTCV$1082 0139  
             ?i1__Umul8_16 0070             __pcstackCOMMON 0070          __end_of_ErrHanler 07FF  
           main@checkCount 0145     __end_of_HeartBeatFlush 0A05                  ?i1___flge 0070  
    __end_of_ledFaultCheck 0A2B              _currentStatus 0147       __size_of_int_handler 00C7  
                ?_ErrFlush 00A0                 __pbssBANK0 005A                 __pbssBANK2 0120  
           i1___xxtofl@arg 007A             i1___xxtofl@exp 0079             i1___xxtofl@val 0070  
        __end_of__Umul8_16 09E3                 __pmaintext 0A6E                    ?___flge 00A0  
          __CFG_PPS1WAY$ON 0000                 __pintentry 0004            ?_HeartBeatFlush 0070  
                  _T016BIT 2CF4                 ??i1___flge 0078                  ?___xxtofl 00A0  
      i1__Umul8_16@product 0074                    _NVMADRH 081B                    _NVMADRL 081A  
                  _NVMDATH 081D                    _NVMDATL 081C                 ??_ErrFlush 00A2  
__size_of_temperatureCheck 00D1                  ?_read_DIA 00A0            __size_of___flge 007C  
                  ___fldiv 0535                    ___flmul 00DD            __CFG_STVREN$OFF 0000  
                _DIA_Table 0120                    _getNTCV 06AF               ??i1___xxtofl 0074  
                  __ptext1 0ABD                    __ptext2 0C0A                    __ptext3 098F  
                  __ptext4 09E3                    __ptext5 07B8                    __ptext6 0DB5  
                  __ptext7 06AF                    __ptext8 0D1F                    __ptext9 00DD  
               getNTCV@VDD 013D                    _intNTCV 0134            __CFG_WRTAPP$OFF 0000  
                  _initDIA 0C0A                    _extNTCV 0130                 ??___xxtofl 00A4  
          __CFG_WRTSAF$OFF 0000                    clrloop0 098A       end_of_initialization 00D9  
               ??_read_DIA 00A2         __end_ofi1___xxtofl 0D1F       __size_ofi1__Umul8_16 001F  
    __CFG_WDTCPS$WDTCPS_31 0000      i1__Umul8_16@word_mpld 0076                  _PORTAbits 000C  
                _PORTBbits 000D                  ErrFlush@i 00A4              ___xxtofl@sign 00A8  
                _TRISAbits 0012                  _TRISBbits 0013                  _TRISCbits 0014  
                i1___fldiv 0E86                  i1___flmul 0309                ___fldiv@grs 00C2  
              ___fldiv@rem 00BB           __CFG_FEXTOSC$OFF 0000                ___flmul@grs 00D6  
               _upperLimit 0803             __end_of___flge 0C0A                  _ErrHanler 07B8  
        __size_ofi1___flge 007B        start_initialization 00CD                 ?i1___fldiv 0020  
               ?i1___flmul 003A           _temperatureCheck 0DB5          __size_of_ErrFlush 0043  
         ??_HeartBeatFlush 00A0           __CFG_LPBOREN$OFF 0000                   ??___flge 00A8  
                __Umul8_16 09C3                 ?_ErrHanler 0070                  ___fldiv@a 00AE  
                ___fldiv@b 00B2                  ___flmul@a 00CC                  ___flmul@b 00C8  
                ___latbits 0001              ??_int_handler 0054              __pcstackBANK0 0020  
            __pcstackBANK1 00A0              __pcstackBANK2 0139          __size_of___xxtofl 0096  
          i1___xxtofl@sign 0078          i1___fldiv@new_exp 0032                  __pnvBANK2 0147  
        __size_of_read_DIA 0015     __size_of_ledFaultCheck 0026   i1__Umul8_16@multiplicand 0070  
                 ?___fldiv 00AE                   ?___flmul 00C8                 ?__Umul8_16 00A0  
                 ?_getNTCV 00E2       __end_of_restoreLevel 0803                   ?_initDIA 0070  
                _errReason 0138                ??i1___fldiv 0028                ??i1___flmul 0042  
     __CFG_RSTOSC$HFINTPLL 0000        __end_of_int_handler 00CB                   _LATCbits 001A  
                clear_ram0 0989                   _PIE0bits 0716                   _PIE1bits 0717  
                 _PIR1bits 070D          __CFG_BBSIZE$BB512 0000                ??_ErrHanler 00E8  
                 i1___flge 0B13                 _ADCON0bits 009D                 _ADCON1bits 009E  
            _ledFaultCheck 0A05             getNTCV@channel 00E2                   _ErrFlush 0A2B  
            ??i1__Umul8_16 0072             getNTCV@voltage 0141                ??__Umul8_16 00A2  
         __size_of___fldiv 017A           __size_of___flmul 022C   __end_of_temperatureCheck 0E86  
         __size_of_getNTCV 0109                 _ANSELAbits 1F38                 _ANSELBbits 1F43  
               _ANSELCbits 1F4E             ?_ledFaultCheck 0070           __size_of_initDIA 0080  
                 ___xxtofl 0D1F                 _T0CON1bits 059F                _int_handler 0004  
                 __ptext10 09C3                   __ptext11 0535                   __ptext20 0E86  
                 __ptext12 0B8E                   __ptext13 0A05                   __ptext14 0A2B  
                 __ptext16 0C8A                   __ptext17 0309                   __ptext18 09A4  
                 __ptext19 0B13                   _read_DIA 098F              __size_of_main 004F  
            __size_of_init 0056       __CFG_WDTCWS$WDTCWS_7 0000                   int$flags 007E  
      __end_ofi1__Umul8_16 09C3                   main@argc 00EA                   main@argv 00EC  
               _INTCONbits 000B                _NVMCON1bits 081E                 _FVRCONbits 090C  
                 intlevel1 0000               _timerCounter 005A     i1__Umul8_16@multiplier 0078  
             _restoreLevel 07FF          __CFG_CLKOUTEN$OFF 0000            ??_ledFaultCheck 00A0  
            __pstringtext1 07FF              __pstringtext2 0803     __Umul8_16@multiplicand 00A0  
            ErrFlush@count 00A0         __end_of_upperLimit 0807       __Umul8_16@multiplier 00A8  
              i1__Umul8_16 09A4          __Umul8_16@product 00A4  
